(dp1
Vstatus
p2
I0
sVinfo
p3
(dp4
Vcopyright
p5
(dp6
Vtext
p7
V@2016 Baidu - Data
p8
sVimageUrl
p9
Vhttp://api.map.baidu.com/images/copyright_logo.png
p10
sssVmessage
p11
Vok
p12
sVtype
p13
I2
sVresult
p14
(dp15
Vorigin
p16
(dp17
VoriginPt
p18
(dp19
Vlat
p20
F39.998563271812998
sVlng
p21
F116.3444333594
sssVtaxi
p22
(dp23
Vduration
p24
I1113
sVdistance
p25
I16608
sVremark
p26
V\u5168\u7a0b16.6\u516c\u91cc;3.0\u516c\u91cc\u8d77\u6b65\uff1b\u71c3\u6cb9\u9644\u52a0\u8d390.0\u5143\uff1b\u91cc\u7a0b\u8d85\u8fc715.0\u516c\u91cc\uff0c\u8d85\u8fc7\u90e8\u5206\u6bcf\u516c\u91cc\u65363.5\u5143\u3002
p27
sVdetail
p28
(lp29
(dp30
Vstart_price
p31
V13.0
p32
sVkm_price
p33
V2.3
p34
sVtotal_price
p35
V47
p36
sVdesc
p37
V\u767d\u5929\uff0805:00-23:00\uff09
p38
sa(dp39
Vstart_price
p40
V13.0
p41
sVkm_price
p42
V2.8
p43
sVtotal_price
p44
V53
p45
sVdesc
p46
V\u591c\u95f4\uff0823:00-05:00\uff09
p47
sassVdestination
p48
(dp49
VdestinationPt
p50
(dp51
Vlat
p52
F39.915817967412998
sVlng
p53
F116.40393711638001
sssVerror
p54
I0
sVroutes
p55
(lp56
(dp57
Vscheme
p58
(lp59
(dp60
Vdistance
p61
I14483
sVline_price
p62
(lp63
(dp64
Vline_price
p65
I500
sVline_type
p66
I1
sasVtip_label_type
p67
I1
sVprice
p68
I500
sVdestinationLocation
p69
(dp70
Vlat
p71
F39.915817967412998
sVlng
p72
F116.40393711638001
ssVarrive_time
p73
V2016-11-30T14:02:28
p74
sVsteps
p75
(lp76
(lp77
(dp78
Vdistance
p79
I5916
sVstepOriginLocation
p80
(dp81
Vlat
p82
F39.947458236080003
sVlng
p83
F116.3597584514
ssVstepDestinationLocation
p84
(dp85
Vlat
p86
F39.998563271812998
sVlng
p87
F116.3444333594
ssVstepInstruction
p88
V\u4ece<font color="#313233">\u4e94\u9053\u53e3\u7ad9</font>,\u4e58\u5730\u94c113\u53f7\u7ebf(\u897f\u76f4\u95e8\u65b9\u5411),\u7ecf\u8fc73\u7ad9,\u5230<font color="#313233">\u897f\u76f4\u95e8\u7ad9</font>
p89
sVvehicle
p90
(dp91
Vline_color
p92
V#fb9511
p93
sVtotal_price
p94
I0
sVtype
p95
I1
sVname
p96
V\u5730\u94c113\u53f7\u7ebf
p97
sVzone_price
p98
I0
sVstop_num
p99
I3
sVstart_time
p100
V05:35
p101
sVend_time
p102
V22:42
p103
sVend_name
p104
V\u897f\u76f4\u95e8\u7ad9
p105
sVis_rtbus
p106
I0
sVstart_uid
p107
Vce1dd504ba7b9a549c82eade
p108
sVend_uid
p109
Veb368582b6f2d35bac31e5de
p110
sVstart_name
p111
V\u4e94\u9053\u53e3\u7ad9
p112
sVuid
p113
V7ad85451ff003ccb5d17c3b7
p114
ssVduration
p115
I613
sVpath
p116
V116.3444333594,39.998563271813;116.34471183411,39.992545191289;116.34640963152,39.983112795804;116.34687675039,39.981115585435;116.34714624204,39.980369207979;116.35096404046,39.975289476463;116.35135031183,39.974473919484;116.35161082042,39.973471738576;116.35232946483,39.968695624688;116.3527965837,39.967043605409;116.3582582812,39.956453137021;116.35830319647,39.955706488089;116.35793489121,39.953604765499;116.35788997594,39.952519310905;116.3597584514,39.94745823608
p117
sVtype
p118
I3
saa(lp119
(dp120
Vdistance
p121
I424
sVsname
p122
V
sVename
p123
V
sVstepDestinationLocation
p124
(dp125
Vlat
p126
F39.947458236080003
sVlng
p127
F116.3597584514
ssVpois
p128
(lp129
sVstepOriginLocation
p130
(dp131
Vlat
p132
F39.946026962033997
sVlng
p133
F116.36211201184
ssVstepInstruction
p134
V\u7ad9\u5185\u6362\u4e58 \u6b65\u884c424\u7c73
p135
sVvehicle
p136
NsVduration
p137
I339
sVpath
p138
V116.35974946834,39.947451321785;116.35974946834,39.947451321785;116.35977641751,39.947451321785;116.35973150223,39.947561950418;116.35973150223,39.947589607548;116.3601177736,39.947575778984;116.3601177736,39.947575778984;116.36117777411,39.946898175918;116.36122268938,39.94687743286;116.36163590992,39.946607772532;116.36168082519,39.945964732043;116.36175268963,39.945964732043;116.36210302878,39.946020047593
p139
sVtype
p140
I5
saa(lp141
(dp142
Vdistance
p143
I3673
sVstepOriginLocation
p144
(dp145
Vlat
p146
F39.913016315318998
sVlng
p147
F116.36313608012
ssVstepDestinationLocation
p148
(dp149
Vlat
p150
F39.946026962033997
sVlng
p151
F116.36211201184
ssVstepInstruction
p152
V\u4ece<font color="#313233">\u897f\u76f4\u95e8\u7ad9</font>,\u4e58\u5730\u94c12\u53f7\u7ebf(\u8f66\u516c\u5e84\u65b9\u5411),\u7ecf\u8fc73\u7ad9,\u5230<font color="#313233">\u590d\u5174\u95e8\u7ad9</font>
p153
sVvehicle
p154
(dp155
Vline_color
p156
V#0066cc
p157
sVtotal_price
p158
I0
sVtype
p159
I1
sVname
p160
V\u5730\u94c12\u53f7\u7ebf
p161
sVzone_price
p162
I0
sVstop_num
p163
I3
sVstart_time
p164
V05:09
p165
sVend_time
p166
V22:59
p167
sVend_name
p168
V\u590d\u5174\u95e8\u7ad9
p169
sVis_rtbus
p170
I0
sVstart_uid
p171
V1904b00db66e3574c8c3dbde
p172
sVend_uid
p173
V5516d1c3b7af2058d02dd6de
p174
sVstart_name
p175
V\u897f\u76f4\u95e8\u7ad9
p176
sVuid
p177
V32c31282e310f2aacb213db7
p178
ssVduration
p179
I426
sVpath
p180
V116.36211201184,39.946026962034;116.36222879155,39.944948300779;116.36236353738,39.939368029426;116.36251624932,39.937168986092;116.36332472427,39.918349731418;116.36307319873,39.914863343378;116.36313608012,39.913016315319
p181
sVtype
p182
I3
saa(lp183
(dp184
Vdistance
p185
I138
sVsname
p186
V
sVename
p187
V
sVstepDestinationLocation
p188
(dp189
Vlat
p190
F39.913016315318998
sVlng
p191
F116.36313608012
ssVpois
p192
(lp193
sVstepOriginLocation
p194
(dp195
Vlat
p196
F39.913023233120001
sVlng
p197
F116.36437574172
ssVstepInstruction
p198
V\u7ad9\u5185\u6362\u4e58 \u6b65\u884c138\u7c73
p199
sVvehicle
p200
NsVduration
p201
I110
sVpath
p202
V116.36313608012,39.913009397516;116.36313608012,39.913009397516;116.36313608012,39.913016315319;116.36436675867,39.913016315319
p203
sVtype
p204
I5
saa(lp205
(dp206
Vdistance
p207
I3709
sVstepOriginLocation
p208
(dp209
Vlat
p210
F39.914074730797999
sVlng
p211
F116.40784474535
ssVstepDestinationLocation
p212
(dp213
Vlat
p214
F39.913023233120001
sVlng
p215
F116.36437574172
ssVstepInstruction
p216
V\u4ece<font color="#313233">\u590d\u5174\u95e8\u7ad9</font>,\u4e58\u5730\u94c11\u53f7\u7ebf(\u56db\u60e0\u4e1c\u65b9\u5411),\u7ecf\u8fc73\u7ad9,\u5230<font color="#313233">\u5929\u5b89\u95e8\u4e1c\u7ad9</font>(A\u53e3)
p217
sVvehicle
p218
(dp219
Vline_color
p220
V#cc0000
p221
sVtotal_price
p222
I0
sVtype
p223
I1
sVname
p224
V\u5730\u94c11\u53f7\u7ebf
p225
sVzone_price
p226
I0
sVstop_num
p227
I3
sVstart_time
p228
V05:10
p229
sVend_time
p230
V22:55
p231
sVend_name
p232
V\u5929\u5b89\u95e8\u4e1c\u7ad9
p233
sVis_rtbus
p234
I0
sVstart_uid
p235
Vafdc9d0548045569f23cbade
p236
sVend_uid
p237
V940aeb3c98d5a0218a2fb5de
p238
sVstart_name
p239
V\u590d\u5174\u95e8\u7ad9
p240
sVuid
p241
V3e210d94b51b7a184107c1b7
p242
ssVduration
p243
I429
sVpath
p244
V116.36437574172,39.91302323312;116.38507270067,39.913376040076;116.40784474535,39.914074730798
p245
sVtype
p246
I3
saa(lp247
(dp248
Vdistance
p249
I623
sVsname
p250
V A\u53e3\u51fa
p251
sVename
p252
V
sVstepDestinationLocation
p253
(dp254
Vlat
p255
F39.914074730797999
sVlng
p256
F116.40784474535
ssVpois
p257
(lp258
sVstepOriginLocation
p259
(dp260
Vlat
p261
F39.915817967412998
sVlng
p262
F116.40393711638001
ssVstepInstruction
p263
V\u6b65\u884c623\u7c73
p264
sVvehicle
p265
NsVduration
p266
I498
sVpath
p267
V116.40783576229,39.914074730798;116.40783576229,39.914074730798;116.40784474535,39.914074730798;116.40720694844,39.914053977712;116.40720694844,39.914053977712;116.40718898233,39.914351438009;116.40718898233,39.914351438009;116.40649728708,39.914344520342;116.40649728708,39.914448285267;116.4063535582,39.91444136761;116.40636254126,39.914330685007;116.40602118516,39.914323767339;116.40603016822,39.9141923315;116.4058145749,39.914185413818;116.40394609944,39.914130072331;116.40391016721,39.914330685007;116.4038922011,39.914731908584;116.40386525194,39.914987860317;116.40384728583,39.915361409766;116.40382033666,39.915811049896
p268
sVtype
p269
I5
saasVtip_label_background
p270
V#67C395
p271
sVduration
p272
I2866
sVtraffic_type
p273
I10
sVtip_label
p274
V<font color="#ffffff">\u6700\u5feb</font>
p275
sVplan_trans_type
p276
I6
sVoriginLocation
p277
(dp278
Vlat
p279
F39.998563271812998
sVlng
p280
F116.3444333594
ssasa(dp281
Vscheme
p282
(lp283
(dp284
Vdistance
p285
I14572
sVline_price
p286
(lp287
(dp288
Vline_price
p289
I500
sVline_type
p290
I1
sasVtip_label_type
p291
I7
sVprice
p292
I500
sVdestinationLocation
p293
(dp294
Vlat
p295
F39.915817967412998
sVlng
p296
F116.40393711638001
ssVarrive_time
p297
V2016-11-30T14:04:45
p298
sVsteps
p299
(lp300
(lp301
(dp302
Vdistance
p303
I5916
sVstepOriginLocation
p304
(dp305
Vlat
p306
F39.947458236080003
sVlng
p307
F116.3597584514
ssVstepDestinationLocation
p308
(dp309
Vlat
p310
F39.998563271812998
sVlng
p311
F116.3444333594
ssVstepInstruction
p312
V\u4ece<font color="#313233">\u4e94\u9053\u53e3\u7ad9</font>,\u4e58\u5730\u94c113\u53f7\u7ebf(\u897f\u76f4\u95e8\u65b9\u5411),\u7ecf\u8fc73\u7ad9,\u5230<font color="#313233">\u897f\u76f4\u95e8\u7ad9</font>
p313
sVvehicle
p314
(dp315
Vline_color
p316
V#fb9511
p317
sVtotal_price
p318
I0
sVtype
p319
I1
sVname
p320
V\u5730\u94c113\u53f7\u7ebf
p321
sVzone_price
p322
I0
sVstop_num
p323
I3
sVstart_time
p324
V05:35
p325
sVend_time
p326
V22:42
p327
sVend_name
p328
V\u897f\u76f4\u95e8\u7ad9
p329
sVis_rtbus
p330
I0
sVstart_uid
p331
Vce1dd504ba7b9a549c82eade
p332
sVend_uid
p333
Veb368582b6f2d35bac31e5de
p334
sVstart_name
p335
V\u4e94\u9053\u53e3\u7ad9
p336
sVuid
p337
V7ad85451ff003ccb5d17c3b7
p338
ssVduration
p339
I613
sVpath
p340
V116.3444333594,39.998563271813;116.34471183411,39.992545191289;116.34640963152,39.983112795804;116.34687675039,39.981115585435;116.34714624204,39.980369207979;116.35096404046,39.975289476463;116.35135031183,39.974473919484;116.35161082042,39.973471738576;116.35232946483,39.968695624688;116.3527965837,39.967043605409;116.3582582812,39.956453137021;116.35830319647,39.955706488089;116.35793489121,39.953604765499;116.35788997594,39.952519310905;116.3597584514,39.94745823608
p341
sVtype
p342
I3
saa(lp343
(dp344
Vdistance
p345
I424
sVsname
p346
V
sVename
p347
V
sVstepDestinationLocation
p348
(dp349
Vlat
p350
F39.947458236080003
sVlng
p351
F116.3597584514
ssVpois
p352
(lp353
sVstepOriginLocation
p354
(dp355
Vlat
p356
F39.946026962033997
sVlng
p357
F116.36211201184
ssVstepInstruction
p358
V\u7ad9\u5185\u6362\u4e58 \u6b65\u884c424\u7c73
p359
sVvehicle
p360
NsVduration
p361
I339
sVpath
p362
V116.35974946834,39.947451321785;116.35974946834,39.947451321785;116.35977641751,39.947451321785;116.35973150223,39.947561950418;116.35973150223,39.947589607548;116.3601177736,39.947575778984;116.3601177736,39.947575778984;116.36117777411,39.946898175918;116.36122268938,39.94687743286;116.36163590992,39.946607772532;116.36168082519,39.945964732043;116.36175268963,39.945964732043;116.36210302878,39.946020047593
p363
sVtype
p364
I5
saa(lp365
(dp366
Vdistance
p367
I5122
sVstepOriginLocation
p368
(dp369
Vlat
p370
F39.913306862386001
sVlng
p371
F116.38057219007
ssVstepDestinationLocation
p372
(dp373
Vlat
p374
F39.946026962033997
sVlng
p375
F116.36211201184
ssVstepInstruction
p376
V\u4ece<font color="#313233">\u897f\u76f4\u95e8\u7ad9</font>,\u4e58\u5730\u94c14\u53f7\u7ebf\u5927\u5174\u7ebf(\u5929\u5bab\u9662\u65b9\u5411),\u7ecf\u8fc75\u7ad9,\u5230<font color="#313233">\u897f\u5355\u7ad9</font>
p377
sVvehicle
p378
(dp379
Vline_color
p380
V#158e9b
p381
sVtotal_price
p382
I0
sVtype
p383
I1
sVname
p384
V\u5730\u94c14\u53f7\u7ebf\u5927\u5174\u7ebf
p385
sVzone_price
p386
I0
sVstop_num
p387
I5
sVstart_time
p388
V05:00
p389
sVend_time
p390
V22:20
p391
sVend_name
p392
V\u897f\u5355\u7ad9
p393
sVis_rtbus
p394
I0
sVstart_uid
p395
Vbdd5e3dce1b94802705e8028
p396
sVend_uid
p397
V8005f0e54e2acca33813fd28
p398
sVstart_name
p399
V\u897f\u76f4\u95e8\u7ad9
p400
sVuid
p401
V1479a7007b19e457ebf8536c
p402
ssVduration
p403
I626
sVpath
p404
V116.36211201184,39.946026962034;116.36481591142,39.946213651665;116.37789523965,39.946676916308;116.37835337546,39.946593943769;116.37890134182,39.946317367905;116.37915286736,39.945923245351;116.37931456235,39.939748359884;116.37997032537,39.929603179777;116.38057219007,39.913306862386
p405
sVtype
p406
I3
saa(lp407
(dp408
Vdistance
p409
I403
sVsname
p410
V
sVename
p411
V
sVstepDestinationLocation
p412
(dp413
Vlat
p414
F39.913306862386001
sVlng
p415
F116.38057219007
ssVpois
p416
(lp417
sVstepOriginLocation
p418
(dp419
Vlat
p420
F39.913348369009
sVlng
p421
F116.38341981853
ssVstepInstruction
p422
V\u7ad9\u5185\u6362\u4e58 \u6b65\u884c403\u7c73
p423
sVvehicle
p424
NsVduration
p425
I322
sVpath
p426
V116.38056320701,39.913299944613;116.38056320701,39.913299944613;116.38056320701,39.913666585605;116.38056320701,39.913666585605;116.38153337696,39.913666585605;116.38245863164,39.913548983993;116.38251252997,39.913555901741;116.38268320801,39.913548983993;116.38269219107,39.913334533471;116.38268320801,39.913334533471;116.38341981853,39.913348369009;116.38341981853,39.91334145124
p427
sVtype
p428
I5
saa(lp429
(dp430
Vdistance
p431
I2084
sVstepOriginLocation
p432
(dp433
Vlat
p434
F39.914074730797999
sVlng
p435
F116.40784474535
ssVstepDestinationLocation
p436
(dp437
Vlat
p438
F39.913348369009
sVlng
p439
F116.38341981853
ssVstepInstruction
p440
V\u4ece<font color="#313233">\u897f\u5355\u7ad9</font>,\u4e58\u5730\u94c11\u53f7\u7ebf(\u56db\u60e0\u4e1c\u65b9\u5411),\u7ecf\u8fc72\u7ad9,\u5230<font color="#313233">\u5929\u5b89\u95e8\u4e1c\u7ad9</font>(A\u53e3)
p441
sVvehicle
p442
(dp443
Vline_color
p444
V#cc0000
p445
sVtotal_price
p446
I0
sVtype
p447
I1
sVname
p448
V\u5730\u94c11\u53f7\u7ebf
p449
sVzone_price
p450
I0
sVstop_num
p451
I2
sVstart_time
p452
V05:10
p453
sVend_time
p454
V22:55
p455
sVend_name
p456
V\u5929\u5b89\u95e8\u4e1c\u7ad9
p457
sVis_rtbus
p458
I0
sVstart_uid
p459
V722fee03d327cb7527d2bbde
p460
sVend_uid
p461
V940aeb3c98d5a0218a2fb5de
p462
sVstart_name
p463
V\u897f\u5355\u7ad9
p464
sVuid
p465
V3e210d94b51b7a184107c1b7
p466
ssVduration
p467
I253
sVpath
p468
V116.38341981853,39.913348369009;116.40784474535,39.914074730798
p469
sVtype
p470
I3
saa(lp471
(dp472
Vdistance
p473
I623
sVsname
p474
V A\u53e3\u51fa
p475
sVename
p476
V
sVstepDestinationLocation
p477
(dp478
Vlat
p479
F39.914074730797999
sVlng
p480
F116.40784474535
ssVpois
p481
(lp482
sVstepOriginLocation
p483
(dp484
Vlat
p485
F39.915817967412998
sVlng
p486
F116.40393711638001
ssVstepInstruction
p487
V\u6b65\u884c623\u7c73
p488
sVvehicle
p489
NsVduration
p490
I498
sVpath
p491
V116.40783576229,39.914074730798;116.40783576229,39.914074730798;116.40784474535,39.914074730798;116.40720694844,39.914053977712;116.40720694844,39.914053977712;116.40718898233,39.914351438009;116.40718898233,39.914351438009;116.40649728708,39.914344520342;116.40649728708,39.914448285267;116.4063535582,39.91444136761;116.40636254126,39.914330685007;116.40602118516,39.914323767339;116.40603016822,39.9141923315;116.4058145749,39.914185413818;116.40394609944,39.914130072331;116.40391016721,39.914330685007;116.4038922011,39.914731908584;116.40386525194,39.914987860317;116.40384728583,39.915361409766;116.40382033666,39.915811049896
p492
sVtype
p493
I5
saasVtip_label_background
p494
V#67C395
p495
sVduration
p496
I3102
sVtraffic_type
p497
I10
sVtip_label
p498
V<font color="#ffffff">\u65e0\u5835\u8f66\u98ce\u9669</font>
p499
sVplan_trans_type
p500
I6
sVoriginLocation
p501
(dp502
Vlat
p503
F39.998563271812998
sVlng
p504
F116.3444333594
ssasa(dp505
Vscheme
p506
(lp507
(dp508
Vdistance
p509
I16535
sVline_price
p510
(lp511
(dp512
Vline_price
p513
I500
sVline_type
p514
I1
sa(dp515
Vline_price
p516
I200
sVline_type
p517
I0
sasVtip_label_type
p518
I8
sVprice
p519
I700
sVdestinationLocation
p520
(dp521
Vlat
p522
F39.915817967412998
sVlng
p523
F116.40393711638001
ssVarrive_time
p524
V2016-11-30T14:12:30
p525
sVsteps
p526
(lp527
(lp528
(dp529
Vdistance
p530
I5916
sVstepOriginLocation
p531
(dp532
Vlat
p533
F39.947458236080003
sVlng
p534
F116.3597584514
ssVstepDestinationLocation
p535
(dp536
Vlat
p537
F39.998563271812998
sVlng
p538
F116.3444333594
ssVstepInstruction
p539
V\u4ece<font color="#313233">\u4e94\u9053\u53e3\u7ad9</font>,\u4e58\u5730\u94c113\u53f7\u7ebf(\u897f\u76f4\u95e8\u65b9\u5411),\u7ecf\u8fc73\u7ad9,\u5230<font color="#313233">\u897f\u76f4\u95e8\u7ad9</font>
p540
sVvehicle
p541
(dp542
Vline_color
p543
V#fb9511
p544
sVtotal_price
p545
I0
sVtype
p546
I1
sVname
p547
V\u5730\u94c113\u53f7\u7ebf
p548
sVzone_price
p549
I0
sVstop_num
p550
I3
sVstart_time
p551
V05:35
p552
sVend_time
p553
V22:42
p554
sVend_name
p555
V\u897f\u76f4\u95e8\u7ad9
p556
sVis_rtbus
p557
I0
sVstart_uid
p558
Vce1dd504ba7b9a549c82eade
p559
sVend_uid
p560
Veb368582b6f2d35bac31e5de
p561
sVstart_name
p562
V\u4e94\u9053\u53e3\u7ad9
p563
sVuid
p564
V7ad85451ff003ccb5d17c3b7
p565
ssVduration
p566
I613
sVpath
p567
V116.3444333594,39.998563271813;116.34471183411,39.992545191289;116.34640963152,39.983112795804;116.34687675039,39.981115585435;116.34714624204,39.980369207979;116.35096404046,39.975289476463;116.35135031183,39.974473919484;116.35161082042,39.973471738576;116.35232946483,39.968695624688;116.3527965837,39.967043605409;116.3582582812,39.956453137021;116.35830319647,39.955706488089;116.35793489121,39.953604765499;116.35788997594,39.952519310905;116.3597584514,39.94745823608
p568
sVtype
p569
I3
saa(lp570
(dp571
Vdistance
p572
I424
sVsname
p573
V
sVename
p574
V
sVstepDestinationLocation
p575
(dp576
Vlat
p577
F39.947458236080003
sVlng
p578
F116.3597584514
ssVpois
p579
(lp580
sVstepOriginLocation
p581
(dp582
Vlat
p583
F39.946026962033997
sVlng
p584
F116.36211201184
ssVstepInstruction
p585
V\u7ad9\u5185\u6362\u4e58 \u6b65\u884c424\u7c73
p586
sVvehicle
p587
NsVduration
p588
I339
sVpath
p589
V116.35974946834,39.947451321785;116.35974946834,39.947451321785;116.35977641751,39.947451321785;116.35973150223,39.947561950418;116.35973150223,39.947589607548;116.3601177736,39.947575778984;116.3601177736,39.947575778984;116.36117777411,39.946898175918;116.36122268938,39.94687743286;116.36163590992,39.946607772532;116.36168082519,39.945964732043;116.36175268963,39.945964732043;116.36210302878,39.946020047593
p590
sVtype
p591
I5
saa(lp592
(dp593
Vdistance
p594
I7830
sVstepOriginLocation
p595
(dp596
Vlat
p597
F39.906534025578999
sVlng
p598
F116.40426948942
ssVstepDestinationLocation
p599
(dp600
Vlat
p601
F39.946026962033997
sVlng
p602
F116.36211201184
ssVstepInstruction
p603
V\u4ece<font color="#313233">\u897f\u76f4\u95e8\u7ad9</font>,\u4e58\u5730\u94c12\u53f7\u7ebf(\u8f66\u516c\u5e84\u65b9\u5411),\u7ecf\u8fc77\u7ad9,\u5230<font color="#313233">\u524d\u95e8\u7ad9</font>(C\u53e3)
p604
sVvehicle
p605
(dp606
Vline_color
p607
V#0066cc
p608
sVtotal_price
p609
I0
sVtype
p610
I1
sVname
p611
V\u5730\u94c12\u53f7\u7ebf
p612
sVzone_price
p613
I0
sVstop_num
p614
I7
sVstart_time
p615
V05:09
p616
sVend_time
p617
V22:59
p618
sVend_name
p619
V\u524d\u95e8\u7ad9
p620
sVis_rtbus
p621
I0
sVstart_uid
p622
V1904b00db66e3574c8c3dbde
p623
sVend_uid
p624
V8d0658549b0c105878dbd2de
p625
sVstart_name
p626
V\u897f\u76f4\u95e8\u7ad9
p627
sVuid
p628
V32c31282e310f2aacb213db7
p629
ssVduration
p630
I932
sVpath
p631
V116.36211201184,39.946026962034;116.36222879155,39.944948300779;116.36236353738,39.939368029426;116.36251624932,39.937168986092;116.36332472427,39.918349731418;116.36307319873,39.914863343378;116.36318997845,39.911383694408;116.36386370758,39.908318965337;116.36415116534,39.907412664574;116.36448353838,39.906914539924;116.36487879281,39.906492514794;116.36545370833,39.906056650024;116.36604658997,39.905759153417;116.3667203191,39.905510085489;116.36747489573,39.905309446773;116.36791506543,39.90528177242;116.37437388205,39.905530841185;116.38893541436,39.906284960491;116.39738846921,39.906651639331;116.39956236855,39.906706986909;116.40249982756,39.906485596328;116.40426948942,39.906534025579
p632
sVtype
p633
I3
saa(lp634
(dp635
Vdistance
p636
I658
sVsname
p637
V C\u53e3\u51fa
p638
sVename
p639
V
sVstepDestinationLocation
p640
(dp641
Vlat
p642
F39.906534025578999
sVlng
p643
F116.40426948942
ssVpois
p644
(lp645
sVstepOriginLocation
p646
(dp647
Vlat
p648
F39.905510085488999
sVlng
p649
F116.40506898132
ssVstepInstruction
p650
V\u6b65\u884c658\u7c73
p651
sVvehicle
p652
NsVduration
p653
I526
sVpath
p654
V116.40426948942,39.906520188654;116.40426948942,39.906520188654;116.40426948942,39.906520188654;116.40359576029,39.90649943326;116.40359576029,39.90649943326;116.40359576029,39.906298797464;116.40359576029,39.906298797464;116.40304779393,39.906291878978;116.40303881087,39.906367982288;116.40302982782,39.906367982288;116.402571692,39.906361063809;116.40256270895,39.906291878978;116.40240999701,39.906098161075;116.40223931897,39.905897524094;116.40217643758,39.905814501722;116.40208660703,39.905696886521;116.4017722001,39.905226423682;116.40198779342,39.905136481886;116.40248186145,39.904922004816;116.40262559034,39.904880493046;116.40268847172,39.904859737152;116.40289508199,39.904818225345;116.40357779418,39.904721364363;116.40399101471,39.904742120299;116.40435033691,39.904742120299;116.40435033691,39.905164156297;116.40434135386,39.905323283944;116.40435033691,39.905406306917;116.40434135386,39.905482411219
p655
sVtype
p656
I5
saa(lp657
(dp658
Vdistance
p659
I1151
sVstepOriginLocation
p660
(dp661
Vlat
p662
F39.913922541352001
sVlng
p663
F116.40784474535
ssVstepDestinationLocation
p664
(dp665
Vlat
p666
F39.905510085488999
sVlng
p667
F116.40506898132
ssVstepInstruction
p668
V\u4ece<font color="#313233">\u524d\u95e8\u7ad9</font>,\u4e5882\u8def(\u56fd\u5bb6\u4f53\u80b2\u573a\u4e1c(\u9e1f\u5de2)\u65b9\u5411),\u7ecf\u8fc71\u7ad9,\u5230<font color="#313233">\u5929\u5b89\u95e8\u4e1c\u7ad9</font>
p669
sVvehicle
p670
(dp671
Vline_color
p672
V#f78731
p673
sVtotal_price
p674
I0
sVtype
p675
I0
sVname
p676
V82\u8def
p677
sVzone_price
p678
I0
sVstop_num
p679
I1
sVstart_time
p680
V06:00
p681
sVend_time
p682
V23:00
p683
sVend_name
p684
V\u5929\u5b89\u95e8\u4e1c\u7ad9
p685
sVis_rtbus
p686
I1
sVstart_uid
p687
V304b399c4cd2ecae1c38946e
p688
sVend_uid
p689
V5a126a5e27460bac3913fd3f
p690
sVstart_name
p691
V\u524d\u95e8\u7ad9
p692
sVuid
p693
V211e65fd5b009d930ab93abb
p694
ssVduration
p695
I221
sVpath
p696
V116.40507796438,39.905523922621;116.40578762573,39.905793746113;116.40616491404,39.906035894489;116.40583254101,39.913846446501;116.40784474535,39.91393637677
p697
sVtype
p698
I3
saa(lp699
(dp700
Vdistance
p701
I556
sVsname
p702
V
sVename
p703
V
sVstepDestinationLocation
p704
(dp705
Vlat
p706
F39.913922541352001
sVlng
p707
F116.40784474535
ssVpois
p708
(lp709
sVstepOriginLocation
p710
(dp711
Vlat
p712
F39.915817967412998
sVlng
p713
F116.40393711638001
ssVstepInstruction
p714
V\u6b65\u884c556\u7c73
p715
sVvehicle
p716
NsVduration
p717
I444
sVpath
p718
V116.40783576229,39.913929459061;116.40675779568,39.91388103508;116.40673084652,39.91388103508;116.40648830403,39.913860281935;116.40638949042,39.913860281935;116.40583254101,39.913846446501;116.40580559184,39.914053977712;116.4058145749,39.914185413818;116.40394609944,39.914130072331;116.40391016721,39.914330685007;116.4038922011,39.914731908584;116.40386525194,39.914987860317;116.40384728583,39.915361409766;116.40382033666,39.915811049896
p719
sVtype
p720
I5
saasVtip_label_background
p721
V#67C395
p722
sVduration
p723
I3976
sVtraffic_type
p724
I10
sVtip_label
p725
V<font color="#ffffff">\u5835\u8f66\u98ce\u9669\u5c0f</font>
p726
sVplan_trans_type
p727
I4
sVoriginLocation
p728
(dp729
Vlat
p730
F39.998563271812998
sVlng
p731
F116.3444333594
ssasa(dp732
Vscheme
p733
(lp734
(dp735
Vdistance
p736
I16762
sVline_price
p737
(lp738
(dp739
Vline_price
p740
I0
sVline_type
p741
I1
sa(dp742
Vline_price
p743
I500
sVline_type
p744
I0
sasVoriginLocation
p745
(dp746
Vlat
p747
F39.998563271812998
sVlng
p748
F116.3444333594
ssVprice
p749
I500
sVdestinationLocation
p750
(dp751
Vlat
p752
F39.915817967412998
sVlng
p753
F116.40393711638001
ssVarrive_time
p754
V2016-11-30T14:32:25
p755
sVsteps
p756
(lp757
(lp758
(dp759
Vdistance
p760
I199
sVsname
p761
V
sVename
p762
V
sVstepDestinationLocation
p763
(dp764
Vlat
p765
F39.998563271812998
sVlng
p766
F116.3444333594
ssVpois
p767
(lp768
sVstepOriginLocation
p769
(dp770
Vlat
p771
F39.998431999066
sVlng
p772
F116.34210674813001
ssVstepInstruction
p773
V\u6b65\u884c199\u7c73
p774
sVvehicle
p775
NsVduration
p776
I159
sVpath
p777
V116.3444333594,39.998556362728;116.34400217275,39.998549453641;116.34366979972,39.998528726378;116.34356200305,39.998521817289;116.34340030806,39.998507999109;116.34295115531,39.99848036274;116.34269962976,39.99848036274;116.34243013811,39.998473453646;116.34209776507,39.998466544551
p778
sVtype
p779
I5
saa(lp780
(dp781
Vdistance
p782
I4258
sVstepOriginLocation
p783
(dp784
Vlat
p785
F40.000421790251004
sVlng
p786
F116.39196270393001
ssVstepDestinationLocation
p787
(dp788
Vlat
p789
F39.998431999066
sVlng
p790
F116.34210674813001
ssVstepInstruction
p791
V\u4ece<font color="#313233">\u4e94\u9053\u53e3\u7ad9</font>,\u4e5886\u8def(\u56fd\u5bb6\u4f53\u80b2\u9986\u65b9\u5411),\u7ecf\u8fc76\u7ad9,\u5230<font color="#313233">\u5b89\u7fd4\u5317\u8def\u4e1c\u53e3\u7ad9</font>
p792
sVvehicle
p793
(dp794
Vline_color
p795
V#f78731
p796
sVtotal_price
p797
I0
sVtype
p798
I0
sVname
p799
V86\u8def
p800
sVzone_price
p801
I0
sVstop_num
p802
I6
sVstart_time
p803
V05:30
p804
sVheadway
p805
V\u7ea610\u5206\u949f/\u8d9f
p806
sVend_time
p807
V22:30
p808
sVend_name
p809
V\u5b89\u7fd4\u5317\u8def\u4e1c\u53e3\u7ad9
p810
sVis_rtbus
p811
I1
sVstart_uid
p812
Vde53694d57d64324a1d230c7
p813
sVend_uid
p814
V558f5bc4b45a13ba6849f349
p815
sVstart_name
p816
V\u4e94\u9053\u53e3\u7ad9
p817
sVuid
p818
V253cbf11a3f0eefe01294fb7
p819
ssVduration
p820
I889
sVpath
p821
V116.34209776507,39.998466544551;116.34485556299,39.998577089982;116.34687675039,39.998618544473;116.35001183662,39.998687635234;116.36432184339,39.99922654075;116.3716430333,39.999599626673;116.38764185443,40.000373427964;116.38945643156,40.000442516935;116.38963609266,40.000352701259;116.39195372088,40.000428699146
p822
sVtype
p823
I3
saa(lp824
(dp825
Vdistance
p826
I333
sVsname
p827
V
sVename
p828
V
sVstepDestinationLocation
p829
(dp830
Vlat
p831
F40.000421790251004
sVlng
p832
F116.39196270393001
ssVpois
p833
(lp834
sVstepOriginLocation
p835
(dp836
Vlat
p837
F39.998915634244
sVlng
p838
F116.39359761996
ssVstepInstruction
p839
V\u6b65\u884c333\u7c73
p840
sVvehicle
p841
NsVduration
p842
I266
sVpath
p843
V116.39195372088,40.000435608041;116.39245677196,40.000449425828;116.39329219609,40.000470152504;116.39337304358,40.000490879173;116.3934089758,40.000511605836;116.3934898233,40.000594512423;116.39353473857,40.000635965679;116.39353473857,40.000608330178;116.39354372163,40.000366519063;116.39356168774,39.999627262586;116.39359761996,39.998915634244
p844
sVtype
p845
I5
saa(lp846
(dp847
Vdistance
p848
I11401
sVstepOriginLocation
p849
(dp850
Vlat
p851
F39.914185413817997
sVlng
p852
F116.40830288116
ssVstepDestinationLocation
p853
(dp854
Vlat
p855
F39.998915634244
sVlng
p856
F116.39359761996
ssVstepInstruction
p857
V\u4ece<font color="#313233">\u5317\u8fb0\u897f\u6865\u5317\u7ad9</font>,\u4e5882\u8def(\u524d\u95e8\u65b9\u5411),\u7ecf\u8fc718\u7ad9,\u5230<font color="#313233">\u5929\u5b89\u95e8\u4e1c\u7ad9</font>
p858
sVvehicle
p859
(dp860
Vline_color
p861
V#f78731
p862
sVtotal_price
p863
I0
sVtype
p864
I0
sVname
p865
V82\u8def
p866
sVzone_price
p867
I0
sVstop_num
p868
I18
sVstart_time
p869
V05:00
p870
sVend_time
p871
V22:00
p872
sVend_name
p873
V\u5929\u5b89\u95e8\u4e1c\u7ad9
p874
sVis_rtbus
p875
I1
sVstart_uid
p876
V39a55d31faad77d729b97ce3
p877
sVend_uid
p878
V7775ad9be678c971a5da393c
p879
sVstart_name
p880
V\u5317\u8fb0\u897f\u6865\u5317\u7ad9
p881
sVuid
p882
V62ed5ae5681fc6473904b1b6
p883
ssVduration
p884
I2440
sVpath
p885
V116.39359761996,39.998915634244;116.39439711186,39.983195723682;116.39445101019,39.983064421162;116.39941863966,39.983147349099;116.40052355544,39.982663601369;116.40181711538,39.956204254956;116.40171830177,39.956052159912;116.40172728483,39.955505997624;116.40010135185,39.955485257198;116.40028101295,39.952692155156;116.40043372489,39.947064120151;116.40143982706,39.947036462807;116.40232914952,39.946504056736;116.40258965812,39.939776020198;116.40685660929,39.939748359884;116.41229135762,39.939782935275;116.41228237457,39.938462142843;116.41280339176,39.929900571993;116.41332440896,39.917270630428;116.41319864619,39.914392943993;116.40830288116,39.9141923315
p886
sVtype
p887
I3
saa(lp888
(dp889
Vdistance
p890
I571
sVsname
p891
V
sVename
p892
V
sVstepDestinationLocation
p893
(dp894
Vlat
p895
F39.914185413817997
sVlng
p896
F116.40830288116
ssVpois
p897
(lp898
sVstepOriginLocation
p899
(dp900
Vlat
p901
F39.915817967412998
sVlng
p902
F116.40393711638001
ssVstepInstruction
p903
V\u6b65\u884c571\u7c73
p904
sVvehicle
p905
NsVduration
p906
I456
sVpath
p907
V116.40830288116,39.914178496134;116.40695542289,39.914116236952;116.40680271096,39.91410240157;116.4067937279,39.914233837582;116.40637152431,39.914213084544;116.40603016822,39.9141923315;116.4058145749,39.914185413818;116.40394609944,39.914130072331;116.40391016721,39.914330685007;116.4038922011,39.914731908584;116.40386525194,39.914987860317;116.40384728583,39.915361409766;116.40382033666,39.915811049896
p908
sVtype
p909
I5
saasVduration
p910
I5411
sVtraffic_type
p911
I10
sVplan_trans_type
p912
I3
sasa(dp913
Vscheme
p914
(lp915
(dp916
Vdistance
p917
I17803
sVline_price
p918
(lp919
(dp920
Vline_price
p921
I0
sVline_type
p922
I1
sa(dp923
Vline_price
p924
I500
sVline_type
p925
I0
sasVoriginLocation
p926
(dp927
Vlat
p928
F39.998563271812998
sVlng
p929
F116.3444333594
ssVprice
p930
I500
sVdestinationLocation
p931
(dp932
Vlat
p933
F39.915817967412998
sVlng
p934
F116.40393711638001
ssVarrive_time
p935
V2016-11-30T14:42:44
p936
sVsteps
p937
(lp938
(lp939
(dp940
Vdistance
p941
I698
sVsname
p942
V
sVename
p943
V
sVstepDestinationLocation
p944
(dp945
Vlat
p946
F39.998563271812998
sVlng
p947
F116.3444333594
ssVpois
p948
(lp949
sVstepOriginLocation
p950
(dp951
Vlat
p952
F39.995986133999999
sVlng
p953
F116.33952861131
ssVstepInstruction
p954
V\u6b65\u884c698\u7c73
p955
sVvehicle
p956
NsVduration
p957
I558
sVpath
p958
V116.3444333594,39.998556362728;116.34400217275,39.998549453641;116.34366979972,39.998528726378;116.34356200305,39.998521817289;116.34340030806,39.998507999109;116.34295115531,39.99848036274;116.34269962976,39.99848036274;116.34243013811,39.998473453646;116.341271324,39.998445817262;116.34097488319,39.998438908165;116.33970827242,39.998404362666;116.33957352659,39.998404362666;116.33939386549,39.998397453564;116.33939386549,39.998321453398;116.33940284854,39.99825927138;116.3394118316,39.997989815311;116.3394118316,39.997941451287;116.33944776382,39.997471627549;116.33947471298,39.997070892963;116.33949267909,39.996566516752;116.33950166215,39.996525061006;116.33953759437,39.995986134
p959
sVtype
p960
I5
saa(lp961
(dp962
Vdistance
p963
I11502
sVstepOriginLocation
p964
(dp965
Vlat
p966
F39.914351438009
sVlng
p967
F116.35074844713
ssVstepDestinationLocation
p968
(dp969
Vlat
p970
F39.995986133999999
sVlng
p971
F116.33952861131
ssVstepInstruction
p972
V\u4ece<font color="#313233">\u4e1c\u5347\u56ed\u7ad9</font>,\u4e58\u727919\u8def(\u5317\u4eac\u897f\u7ad9\u65b9\u5411),\u7ecf\u8fc721\u7ad9,\u5230<font color="#313233">\u4e09\u91cc\u6cb3\u4e1c\u8def\u5357\u53e3\u7ad9</font>
p973
sVvehicle
p974
(dp975
Vline_color
p976
V#f78731
p977
sVtotal_price
p978
I0
sVtype
p979
I0
sVname
p980
V\u727919\u8def
p981
sVzone_price
p982
I0
sVstop_num
p983
I21
sVstart_time
p984
V05:30
p985
sVend_time
p986
V23:00
p987
sVend_name
p988
V\u4e09\u91cc\u6cb3\u4e1c\u8def\u5357\u53e3\u7ad9
p989
sVis_rtbus
p990
I1
sVstart_uid
p991
V9f76c845c185f7a16fc02c70
p992
sVend_uid
p993
Vd8d639acd013ccb2f33cbacf
p994
sVstart_name
p995
V\u4e1c\u5347\u56ed\u7ad9
p996
sVuid
p997
V06b2f244ac94bc1af82d6173
p998
ssVduration
p999
I2547
sVpath
p1000
V116.33952861131,39.995986134;116.34014844212,39.983755484204;116.34022928961,39.98222131471;116.34057962876,39.975317122291;116.34082217125,39.971861306505;116.34185522259,39.962066567712;116.34250200255,39.95795332346;116.33046470872,39.957414089757;116.33179420087,39.947589607548;116.33212657391,39.944374390689;116.34130725622,39.943634523533;116.34234929062,39.943627608849;116.34604132626,39.943779731742;116.34784692034,39.94373132904;116.349095565,39.943793561079;116.34926624304,39.943676011625;116.34928420915,39.943136664459;116.3502543791,39.9416568951;116.35042505715,39.941006892755;116.35049692159,39.937915838985;116.35061370131,39.937915838985;116.35062268436,39.937417937969;116.35060471825,39.936297647332;116.35048793854,39.935536945622;116.35045200632,39.934617176717;116.35056878603,39.932846759391;116.35094607435,39.929444108988;116.35107183712,39.929001475265;116.35144912543,39.92417381392;116.35144014238,39.923412976391;116.35161082042,39.922133366781;116.35179048153,39.919684749308;116.3517365832,39.917886273477;116.35146709154,39.916696486377;116.35074844713,39.914351438009
p1001
sVtype
p1002
I3
saa(lp1003
(dp1004
Vdistance
p1005
I294
sVsname
p1006
V
sVename
p1007
V
sVstepDestinationLocation
p1008
(dp1009
Vlat
p1010
F39.914351438009
sVlng
p1011
F116.35074844713
ssVpois
p1012
(lp1013
sVstepOriginLocation
p1014
(dp1015
Vlat
p1016
F39.912836452226003
sVlng
p1017
F116.35194319346
ssVstepInstruction
p1018
V\u6b65\u884c294\u7c73
p1019
sVvehicle
p1020
NsVduration
p1021
I235
sVpath
p1022
V116.35074844713,39.914344520342;116.35073048102,39.914309931999;116.35066759964,39.91401247152;116.35065861658,39.913950212186;116.3505148877,39.913203095719;116.35047895548,39.912995561909;116.35043404021,39.912864123502;116.35053285381,39.912850287865;116.3506945488,39.912850287865;116.35076641324,39.912850287865;116.35082929463,39.912850287865;116.35194319346,39.912836452226
p1023
sVtype
p1024
I5
saa(lp1025
(dp1026
Vdistance
p1027
I4762
sVstepOriginLocation
p1028
(dp1029
Vlat
p1030
F39.913929459061002
sVlng
p1031
F116.40774593174
ssVstepDestinationLocation
p1032
(dp1033
Vlat
p1034
F39.912836452226003
sVlng
p1035
F116.35194319346
ssVstepInstruction
p1036
V\u4ece<font color="#313233">\u5de5\u4f1a\u5927\u697c\u7ad9</font>,\u4e581\u8def(\u56db\u60e0\u67a2\u7ebd\u7ad9\u65b9\u5411)<font color="#7a7c80">\u621699\u8def</font>,\u7ecf\u8fc75\u7ad9,\u5230<font color="#313233">\u5929\u5b89\u95e8\u4e1c\u7ad9</font>
p1037
sVvehicle
p1038
(dp1039
Vline_color
p1040
V#f78731
p1041
sVtotal_price
p1042
I0
sVtype
p1043
I0
sVname
p1044
V1\u8def
p1045
sVzone_price
p1046
I0
sVstop_num
p1047
I5
sVstart_time
p1048
V05:00
p1049
sVend_time
p1050
V23:00
p1051
sVend_name
p1052
V\u5929\u5b89\u95e8\u4e1c\u7ad9
p1053
sVis_rtbus
p1054
I1
sVstart_uid
p1055
Va442b4a288a130dceedfca55
p1056
sVend_uid
p1057
V0210d9afb7baf2744054d742
p1058
sVstart_name
p1059
V\u5de5\u4f1a\u5927\u697c\u7ad9
p1060
sVuid
p1061
Vd32cbe21ffd171b4e5073882
p1062
ssVduration
p1063
I943
sVpath
p1064
V116.35194319346,39.912829534405;116.35917455282,39.912829534405;116.38049134257,39.913099328893;116.38614168423,39.913237684626;116.38923185518,39.913244602405;116.40008338574,39.913708092008;116.40213152231,39.913708092008;116.40774593174,39.91393637677
p1065
sVtype
p1066
I3
sa(dp1067
Vdistance
p1068
I4731
sVstepOriginLocation
p1069
(dp1070
Vlat
p1071
F39.913915623641998
sVlng
p1072
F116.40764711814001
ssVstepDestinationLocation
p1073
(dp1074
Vlat
p1075
F39.912815698761001
sVlng
p1076
F116.35220370206
ssVvehicle
p1077
(dp1078
Vline_color
p1079
V#f78731
p1080
sVtotal_price
p1081
I0
sVtype
p1082
I0
sVname
p1083
V99\u8def
p1084
sVzone_price
p1085
I0
sVstop_num
p1086
I4
sVstart_time
p1087
V05:30
p1088
sVend_time
p1089
V23:00
p1090
sVend_name
p1091
V\u5929\u5b89\u95e8\u4e1c\u7ad9
p1092
sVis_rtbus
p1093
I1
sVstart_uid
p1094
Va8fc649c7a0dd6eeb13c819b
p1095
sVend_uid
p1096
V80cd780403343c34ca1b95a0
p1097
sVstart_name
p1098
V\u5de5\u4f1a\u5927\u697c\u7ad9
p1099
sVuid
p1100
Vb841f80eb10d0c7303897278
p1101
ssVduration
p1102
I908
sVtype
p1103
I3
saa(lp1104
(dp1105
Vdistance
p1106
I547
sVsname
p1107
V
sVename
p1108
V
sVstepDestinationLocation
p1109
(dp1110
Vlat
p1111
F39.913929459061002
sVlng
p1112
F116.40774593174
ssVpois
p1113
(lp1114
sVstepOriginLocation
p1115
(dp1116
Vlat
p1117
F39.915817967412998
sVlng
p1118
F116.40393711638001
ssVstepInstruction
p1119
V\u6b65\u884c547\u7c73
p1120
sVvehicle
p1121
NsVduration
p1122
I437
sVpath
p1123
V116.40773694869,39.913929459061;116.40675779568,39.91388103508;116.40673084652,39.91388103508;116.40648830403,39.913860281935;116.40638949042,39.913860281935;116.40583254101,39.913846446501;116.40580559184,39.914053977712;116.4058145749,39.914185413818;116.40394609944,39.914130072331;116.40391016721,39.914330685007;116.4038922011,39.914731908584;116.40386525194,39.914987860317;116.40384728583,39.915361409766;116.40382033666,39.915811049896
p1124
sVtype
p1125
I5
saasVduration
p1126
I5920
sVtraffic_type
p1127
I10
sVplan_trans_type
p1128
I3
sasasVtraffic_condition
p1129
I1
ss.