(dp1
Vstatus
p2
I0
sVinfo
p3
(dp4
Vcopyright
p5
(dp6
Vtext
p7
V@2016 Baidu - Data
p8
sVimageUrl
p9
Vhttp://api.map.baidu.com/images/copyright_logo.png
p10
sssVmessage
p11
Vok
p12
sVtype
p13
I2
sVresult
p14
(dp15
Vorigin
p16
(dp17
VoriginPt
p18
(dp19
Vlat
p20
F45.759394278746001
sVlng
p21
F126.68477417673
sssVtaxi
p22
(dp23
Vduration
p24
I608
sVdistance
p25
I7979
sVremark
p26
V\u5168\u7a0b8.0\u516c\u91cc;3.0\u516c\u91cc\u8d77\u6b65\uff1b\u71c3\u6cb9\u9644\u52a0\u8d391.0\u5143\uff1b\u91cc\u7a0b\u8d85\u8fc712.0\u516c\u91cc\uff0c\u8d85\u8fc7\u90e8\u5206\u6bcf\u516c\u91cc\u65362.9\u5143\u3002
p27
sVdetail
p28
(lp29
(dp30
Vstart_price
p31
V8.0
p32
sVkm_price
p33
V1.9
p34
sVtotal_price
p35
V19
p36
sVdesc
p37
V\u767d\u5929\uff0806:00-22:00\uff09
p38
sa(dp39
Vstart_price
p40
V8.0
p41
sVkm_price
p42
V2.5
p43
sVtotal_price
p44
V22
p45
sVdesc
p46
V\u591c\u95f4\uff0822:00-06:00\uff09
p47
sassVdestination
p48
(dp49
VdestinationPt
p50
(dp51
Vlat
p52
F45.728989637540998
sVlng
p53
F126.61620651715
sssVerror
p54
I0
sVroutes
p55
(lp56
(dp57
Vscheme
p58
(lp59
(dp60
Vdistance
p61
I8775
sVline_price
p62
(lp63
(dp64
Vline_price
p65
I200
sVline_type
p66
I1
sasVoriginLocation
p67
(dp68
Vlat
p69
F45.759394278746001
sVlng
p70
F126.68477417673
ssVprice
p71
I-1
sVdestinationLocation
p72
(dp73
Vlat
p74
F45.728989637540998
sVlng
p75
F126.61620651715
ssVarrive_time
p76
V2016-11-30T10:17:56
p77
sVsteps
p78
(lp79
(lp80
(dp81
Vdistance
p82
I172
sVsname
p83
V
sVename
p84
V
sVstepDestinationLocation
p85
(dp86
Vlat
p87
F45.759394278746001
sVlng
p88
F126.68477417673
ssVpois
p89
(lp90
sVstepOriginLocation
p91
(dp92
Vlat
p93
F45.759425718856001
sVlng
p94
F126.68428010869999
ssVstepInstruction
p95
V\u6b65\u884c172\u7c73
p96
sVvehicle
p97
NsVduration
p98
I137
sVpath
p99
V126.68479214284,45.759350262562;126.68485502422,45.759350262562;126.68558265169,45.759394278746;126.68555570252,45.759476022995;126.68487299034,45.759432006876;126.68476519367,45.759432006876;126.68460349868,45.759450870931;126.68427112564,45.759425718856
p100
sVtype
p101
I5
saa(lp102
(dp103
Vdistance
p104
I3477
sVstepOriginLocation
p105
(dp106
Vlat
p107
F45.762783419945002
sVlng
p108
F126.64770110833
ssVstepDestinationLocation
p109
(dp110
Vlat
p111
F45.759425718856001
sVlng
p112
F126.68428010869999
ssVstepInstruction
p113
V\u4ece<font color="#313233">\u9ec4\u6cb3\u8def\u7ad9</font>,\u4e58386\u8def(\u5317\u4eac\u8857(\u6ee1\u6d32\u91cc\u8857\u8def\u53e3)\u65b9\u5411),\u7ecf\u8fc75\u7ad9,\u5230<font color="#313233">\u535a\u7269\u9986\u7ad9</font>
p114
sVvehicle
p115
(dp116
Vline_color
p117
V#f78731
p118
sVtotal_price
p119
I0
sVtype
p120
I0
sVname
p121
V386\u8def
p122
sVzone_price
p123
I0
sVstop_num
p124
I5
sVstart_time
p125
V05:30
p126
sVend_time
p127
V19:30
p128
sVend_name
p129
V\u535a\u7269\u9986\u7ad9
p130
sVis_rtbus
p131
I0
sVstart_uid
p132
V5d08f09f986243f1deee8bf2
p133
sVend_uid
p134
V488a28468c6ea6e54c3a59db
p135
sVstart_name
p136
V\u9ec4\u6cb3\u8def\u7ad9
p137
sVuid
p138
V41491c112127677ad0ff234b
p139
ssVduration
p140
I729
sVpath
p141
V126.6842801087,45.759419430835;126.68114502247,45.759224501844;126.67791112263,45.759205637711;126.67708468156,45.75909874084;126.67429993448,45.759293670274;126.67143433991,45.759325110441;126.67134450935,45.759281094202;126.67014077997,45.760016789604;126.6689550167,45.759343974533;126.66780518565,45.758513948427;126.66645772738,45.757702774542;126.66212789482,45.760161412338;126.65836399474,45.762525626134;126.65253399198,45.765908288582;126.64967738045,45.763600807027;126.64932704131,45.763657394917;126.64907551576,45.763575656835;126.64889585466,45.763349304594;126.64894076994,45.763154389423;126.64770110833,45.762789707584
p142
sVtype
p143
I3
saa(lp144
(dp145
Vdistance
p146
I344
sVsname
p147
V
sVename
p148
V 3B\u5165\u53e3
p149
sVstepDestinationLocation
p150
(dp151
Vlat
p152
F45.762783419945002
sVlng
p153
F126.64770110833
ssVpois
p154
(lp155
sVstepOriginLocation
p156
(dp157
Vlat
p158
F45.764154108364004
sVlng
p159
F126.65016246543
ssVstepInstruction
p160
V\u6b65\u884c344\u7c73
p161
sVvehicle
p162
NsVduration
p163
I275
sVpath
p164
V126.64769212528,45.762789707584;126.64824009164,45.762953185946;126.64893178688,45.763154389423;126.64892280383,45.7631858274;126.64890483772,45.763223552949;126.64889585466,45.763242415714;126.64889585466,45.763286428807;126.64889585466,45.76331157913;126.64889585466,45.763355592168;126.64891382077,45.763393317602;126.64892280383,45.76343104301;126.64894975299,45.76346248083;126.64895873605,45.763481343513;126.64898568521,45.763500206191;126.64902161743,45.763531643972;126.64903958354,45.763550506632;126.64907551576,45.763581944384;126.64912941409,45.763600807027;126.64917432937,45.763607094573;126.64924619381,45.763638532294;126.64927314297,45.763638532294;126.64932704131,45.763644819836;126.64939890575,45.763657394917;126.64947077019,45.763657394917;126.64952466852,45.763632244751;126.64959653296,45.763625957208;126.6496683974,45.763600807027;126.64973127878,45.763569369285;126.64979416017,45.763537931526;126.65019839765,45.76387117087;126.65029721126,45.763814583198;126.65044992319,45.763952908517;126.65044992319,45.763952908517;126.65017144848,45.764141533395;126.65015348237,45.764154108364;126.65015348237,45.764154108364
p165
sVtype
p166
I5
saa(lp167
(dp168
Vdistance
p169
I4782
sVstepOriginLocation
p170
(dp171
Vlat
p172
F45.728989637540998
sVlng
p173
F126.61620651715
ssVstepDestinationLocation
p174
(dp175
Vlat
p176
F45.764154108364004
sVlng
p177
F126.65016246543
ssVstepInstruction
p178
V\u4ece<font color="#313233">\u535a\u7269\u9986\u7ad9</font>(3B\u53e3),\u4e58\u5730\u94c11\u53f7\u7ebf(\u54c8\u5357\u7ad9\u65b9\u5411),\u7ecf\u8fc75\u7ad9,\u5230<font color="#313233">\u5b66\u5e9c\u8def\u7ad9</font>
p179
sVvehicle
p180
(dp181
Vline_color
p182
V#581014
p183
sVtotal_price
p184
I0
sVtype
p185
I1
sVname
p186
V\u5730\u94c11\u53f7\u7ebf
p187
sVzone_price
p188
I0
sVstop_num
p189
I5
sVstart_time
p190
V06:00
p191
sVend_time
p192
V21:00
p193
sVend_name
p194
V\u5b66\u5e9c\u8def\u7ad9
p195
sVis_rtbus
p196
I0
sVstart_uid
p197
V9f4fbd7d3cea93690b69d937
p198
sVend_uid
p199
Vf5c31cadfe3c065a1fe999f9
p200
sVstart_name
p201
V\u535a\u7269\u9986\u7ad9(3B\u53e3)
p202
sVuid
p203
V0a969688c61621bfd22dd6c1
p204
ssVduration
p205
I598
sVpath
p206
V126.65016246543,45.764154108364;126.64243703804,45.757488974798;126.63419059346,45.750659525617;126.62454279228,45.742445464256;126.62181194353,45.738885240465;126.61608973744,45.730694600256;126.6159370255,45.73029195696;126.61594600855,45.730008846643;126.61620651715,45.728989637541
p207
sVtype
p208
I3
saasVduration
p209
I2490
sVtraffic_type
p210
I0
sVplan_trans_type
p211
I4
sasa(dp212
Vscheme
p213
(lp214
(dp215
Vdistance
p216
I8534
sVline_price
p217
(lp218
(dp219
Vline_price
p220
I200
sVline_type
p221
I1
sasVtip_label_type
p222
I1
sVprice
p223
I-1
sVdestinationLocation
p224
(dp225
Vlat
p226
F45.728989637540998
sVlng
p227
F126.61620651715
ssVarrive_time
p228
V2016-11-30T10:17:47
p229
sVsteps
p230
(lp231
(lp232
(dp233
Vdistance
p234
I169
sVsname
p235
V
sVename
p236
V
sVstepDestinationLocation
p237
(dp238
Vlat
p239
F45.759394278746001
sVlng
p240
F126.68477417673
ssVpois
p241
(lp242
sVstepOriginLocation
p243
(dp244
Vlat
p245
F45.759425718856001
sVlng
p246
F126.68431604092
ssVstepInstruction
p247
V\u6b65\u884c169\u7c73
p248
sVvehicle
p249
NsVduration
p250
I135
sVpath
p251
V126.68479214284,45.759350262562;126.68485502422,45.759350262562;126.68558265169,45.759394278746;126.68555570252,45.759476022995;126.68487299034,45.759432006876;126.68476519367,45.759432006876;126.68460349868,45.759450870931;126.68430705786,45.759432006876
p252
sVtype
p253
I5
saa(lp254
(dp255
Vdistance
p256
I4316
sVstepOriginLocation
p257
(dp258
Vlat
p259
F45.758576829627003
sVlng
p260
F126.64373958103
ssVstepDestinationLocation
p261
(dp262
Vlat
p263
F45.759425718856001
sVlng
p264
F126.68431604092
ssVstepInstruction
p265
V\u4ece<font color="#313233">\u9ec4\u6cb3\u8def\u7ad9</font>,\u4e5886\u8def(\u6cb3\u67cf\u5c0f\u533a\u65b9\u5411),\u7ecf\u8fc76\u7ad9,\u5230<font color="#313233">\u54c8\u94c1\u8def\u5c40\u7ad9</font>
p266
sVvehicle
p267
(dp268
Vline_color
p269
V#f78731
p270
sVtotal_price
p271
I0
sVtype
p272
I0
sVname
p273
V86\u8def
p274
sVzone_price
p275
I0
sVstop_num
p276
I6
sVstart_time
p277
V05:50
p278
sVend_time
p279
V20:30
p280
sVend_name
p281
V\u54c8\u94c1\u8def\u5c40\u7ad9
p282
sVis_rtbus
p283
I0
sVstart_uid
p284
V9bdd601d38499a35c356acc0
p285
sVend_uid
p286
V3ca5dd25b8f8c7def7eafc87
p287
sVstart_name
p288
V\u9ec4\u6cb3\u8def\u7ad9
p289
sVuid
p290
V0f08a7c3b7af2058d02dd624
p291
ssVduration
p292
I899
sVpath
p293
V126.68431604092,45.759419430835;126.68114502247,45.759224501844;126.67791112263,45.759205637711;126.67708468156,45.759092452783;126.67300637455,45.756508000692;126.67138044158,45.755583605361;126.67005993248,45.754747234398;126.66795789758,45.753590128955;126.66546060826,45.752036802701;126.66404128556,45.753162496919;126.66358314975,45.753231672913;126.65600145124,45.759337686503;126.65595653597,45.759494887035;126.65514806101,45.760098532935;126.64990195683,45.763192114993;126.64990195683,45.763393317602;126.64967738045,45.763600807027;126.64932704131,45.763651107377;126.64898568521,45.763512781305;126.64889585466,45.763248703301;126.64903958354,45.763060075384;126.64373059798,45.758583117744
p294
sVtype
p295
I3
saa(lp296
(dp297
Vdistance
p298
I220
sVsname
p299
V
sVename
p300
V 3\u53f7\u5165\u53e3
p301
sVstepDestinationLocation
p302
(dp303
Vlat
p304
F45.758576829627003
sVlng
p305
F126.64373958103
ssVpois
p306
(lp307
sVstepOriginLocation
p308
(dp309
Vlat
p310
F45.757488974798001
sVlng
p311
F126.64243703804
ssVstepInstruction
p312
V\u6b65\u884c220\u7c73
p313
sVvehicle
p314
NsVduration
p315
I176
sVpath
p316
V126.64373059798,45.758576829627;126.64319161467,45.758111507053;126.64328144522,45.758061201676;126.64311076718,45.757916573462;126.64317364856,45.757885132496;126.64291313996,45.757658757015;126.64291313996,45.757658757015;126.64275144497,45.757753080245;126.64275144497,45.757753080245;126.64242805499,45.757476398316;126.64243703804,45.757476398316;126.64243703804,45.757476398316
p317
sVtype
p318
I5
saa(lp319
(dp320
Vdistance
p321
I3829
sVstepOriginLocation
p322
(dp323
Vlat
p324
F45.728989637540998
sVlng
p325
F126.61620651715
ssVstepDestinationLocation
p326
(dp327
Vlat
p328
F45.757488974798001
sVlng
p329
F126.64243703804
ssVstepInstruction
p330
V\u4ece<font color="#313233">\u94c1\u8def\u5c40\u7ad9</font>(3\u53f7\u53e3),\u4e58\u5730\u94c11\u53f7\u7ebf(\u54c8\u5357\u7ad9\u65b9\u5411),\u7ecf\u8fc74\u7ad9,\u5230<font color="#313233">\u5b66\u5e9c\u8def\u7ad9</font>
p331
sVvehicle
p332
(dp333
Vline_color
p334
V#581014
p335
sVtotal_price
p336
I0
sVtype
p337
I1
sVname
p338
V\u5730\u94c11\u53f7\u7ebf
p339
sVzone_price
p340
I0
sVstop_num
p341
I4
sVstart_time
p342
V06:00
p343
sVend_time
p344
V21:00
p345
sVend_name
p346
V\u5b66\u5e9c\u8def\u7ad9
p347
sVis_rtbus
p348
I0
sVstart_uid
p349
Vb9b923cac190adeb223bf2d1
p350
sVend_uid
p351
Vf5c31cadfe3c065a1fe999f9
p352
sVstart_name
p353
V\u94c1\u8def\u5c40\u7ad9(3\u53f7\u53e3)
p354
sVuid
p355
V0a969688c61621bfd22dd6c1
p356
ssVduration
p357
I479
sVpath
p358
V126.64243703804,45.757488974798;126.63419059346,45.750659525617;126.62454279228,45.742445464256;126.62181194353,45.738885240465;126.61608973744,45.730694600256;126.6159370255,45.73029195696;126.61594600855,45.730008846643;126.61620651715,45.728989637541
p359
sVtype
p360
I3
saasVtip_label_background
p361
V#67C395
p362
sVduration
p363
I2439
sVtraffic_type
p364
I0
sVtip_label
p365
V<font color="#ffffff">\u6700\u5feb</font>
p366
sVplan_trans_type
p367
I4
sVoriginLocation
p368
(dp369
Vlat
p370
F45.759394278746001
sVlng
p371
F126.68477417673
ssasa(dp372
Vscheme
p373
(lp374
(dp375
Vdistance
p376
I9736
sVline_price
p377
(lp378
(dp379
Vline_price
p380
I200
sVline_type
p381
I1
sasVoriginLocation
p382
(dp383
Vlat
p384
F45.759394278746001
sVlng
p385
F126.68477417673
ssVprice
p386
I-1
sVdestinationLocation
p387
(dp388
Vlat
p389
F45.728989637540998
sVlng
p390
F126.61620651715
ssVarrive_time
p391
V2016-11-30T10:20:29
p392
sVsteps
p393
(lp394
(lp395
(dp396
Vdistance
p397
I172
sVsname
p398
V
sVename
p399
V
sVstepDestinationLocation
p400
(dp401
Vlat
p402
F45.759394278746001
sVlng
p403
F126.68477417673
ssVpois
p404
(lp405
sVstepOriginLocation
p406
(dp407
Vlat
p408
F45.759425718856001
sVlng
p409
F126.68428010869999
ssVstepInstruction
p410
V\u6b65\u884c172\u7c73
p411
sVvehicle
p412
NsVduration
p413
I137
sVpath
p414
V126.68479214284,45.759350262562;126.68485502422,45.759350262562;126.68558265169,45.759394278746;126.68555570252,45.759476022995;126.68487299034,45.759432006876;126.68476519367,45.759432006876;126.68460349868,45.759450870931;126.68427112564,45.759425718856
p415
sVtype
p416
I5
saa(lp417
(dp418
Vdistance
p419
I3768
sVstepOriginLocation
p420
(dp421
Vlat
p422
F45.769347326648997
sVlng
p423
F126.65654043455
ssVstepDestinationLocation
p424
(dp425
Vlat
p426
F45.759425718856001
sVlng
p427
F126.68428010869999
ssVstepInstruction
p428
V\u4ece<font color="#313233">\u9ec4\u6cb3\u8def\u7ad9</font>,\u4e5889\u8def(\u5b89\u9686\u8857\u65b9\u5411),\u7ecf\u8fc78\u7ad9,\u5230<font color="#313233">\u533b\u5927\u4e00\u9662\u7ad9</font>
p429
sVvehicle
p430
(dp431
Vline_color
p432
V#f78731
p433
sVtotal_price
p434
I0
sVtype
p435
I0
sVname
p436
V89\u8def
p437
sVzone_price
p438
I0
sVstop_num
p439
I8
sVstart_time
p440
V05:30
p441
sVend_time
p442
V21:00
p443
sVend_name
p444
V\u533b\u5927\u4e00\u9662\u7ad9
p445
sVis_rtbus
p446
I0
sVstart_uid
p447
V6e6723c63f859b59c51e51bf
p448
sVend_uid
p449
V643d817dec20e21dc8213dcd
p450
sVstart_name
p451
V\u9ec4\u6cb3\u8def\u7ad9
p452
sVuid
p453
V46b0e082b6f2d35bac31e55d
p454
ssVduration
p455
I868
sVpath
p456
V126.6842801087,45.759413142814;126.68378604067,45.759387990722;126.68363332873,45.761154897441;126.68130671746,45.760985125932;126.68133366663,45.761462999963;126.67253027263,45.761789964032;126.67156908573,45.761764813018;126.66999705109,45.761821402783;126.66956586444,45.762003747188;126.66692484625,45.763531643972;126.67123671269,45.767354345217;126.66358314975,45.771648282302;126.66244230175,45.770604691306;126.66118467404,45.769630236184;126.66002585993,45.768536311309;126.65733992645,45.770038880741;126.6565314515,45.769353613543
p457
sVtype
p458
I3
saa(lp459
(dp460
Vdistance
p461
I179
sVsname
p462
V
sVename
p463
V 1\u53f7\u5165\u53e3
p464
sVstepDestinationLocation
p465
(dp466
Vlat
p467
F45.769347326648997
sVlng
p468
F126.65654043455
ssVpois
p469
(lp470
sVstepOriginLocation
p471
(dp472
Vlat
p473
F45.769831415420001
sVlng
p474
F126.65721416368
ssVstepInstruction
p475
V\u6b65\u884c179\u7c73
p476
sVvehicle
p477
NsVduration
p478
I143
sVpath
p479
V126.65654043455,45.769347326649;126.65670212954,45.769730825893;126.65670212954,45.769730825893;126.65667518038,45.769711965337;126.65652246844,45.769573654393;126.65672009565,45.769447916871;126.65717823146,45.769825128579;126.65721416368,45.769825128579;126.65721416368,45.769825128579
p480
sVtype
p481
I5
saa(lp482
(dp483
Vdistance
p484
I5617
sVstepOriginLocation
p485
(dp486
Vlat
p487
F45.728989637540998
sVlng
p488
F126.61620651715
ssVstepDestinationLocation
p489
(dp490
Vlat
p491
F45.769831415420001
sVlng
p492
F126.65721416368
ssVstepInstruction
p493
V\u4ece<font color="#313233">\u533b\u5927\u4e00\u9662\u7ad9</font>(1\u53f7\u53e3),\u4e58\u5730\u94c11\u53f7\u7ebf(\u54c8\u5357\u7ad9\u65b9\u5411),\u7ecf\u8fc76\u7ad9,\u5230<font color="#313233">\u5b66\u5e9c\u8def\u7ad9</font>
p494
sVvehicle
p495
(dp496
Vline_color
p497
V#581014
p498
sVtotal_price
p499
I0
sVtype
p500
I1
sVname
p501
V\u5730\u94c11\u53f7\u7ebf
p502
sVzone_price
p503
I0
sVstop_num
p504
I6
sVstart_time
p505
V06:00
p506
sVend_time
p507
V21:00
p508
sVend_name
p509
V\u5b66\u5e9c\u8def\u7ad9
p510
sVis_rtbus
p511
I0
sVstart_uid
p512
V263b2bb490cfa069adb22afb
p513
sVend_uid
p514
Vf5c31cadfe3c065a1fe999f9
p515
sVstart_name
p516
V\u533b\u5927\u4e00\u9662\u7ad9(1\u53f7\u53e3)
p517
sVuid
p518
V0a969688c61621bfd22dd6c1
p519
ssVduration
p520
I708
sVpath
p521
V126.65721416368,45.76983141542;126.65016246543,45.764154108364;126.64243703804,45.757488974798;126.63419059346,45.750659525617;126.62454279228,45.742445464256;126.62181194353,45.738885240465;126.61608973744,45.730694600256;126.6159370255,45.73029195696;126.61594600855,45.730008846643;126.61620651715,45.728989637541
p522
sVtype
p523
I3
saasVduration
p524
I2607
sVtraffic_type
p525
I0
sVplan_trans_type
p526
I4
sasa(dp527
Vscheme
p528
(lp529
(dp530
Vdistance
p531
I9175
sVline_price
p532
(lp533
(dp534
Vline_price
p535
I0
sVline_type
p536
I1
sasVoriginLocation
p537
(dp538
Vlat
p539
F45.759394278746001
sVlng
p540
F126.68477417673
ssVprice
p541
I-1
sVdestinationLocation
p542
(dp543
Vlat
p544
F45.728989637540998
sVlng
p545
F126.61620651715
ssVarrive_time
p546
V2016-11-30T10:38:36
p547
sVsteps
p548
(lp549
(lp550
(dp551
Vdistance
p552
I1181
sVsname
p553
V
sVename
p554
V
sVstepDestinationLocation
p555
(dp556
Vlat
p557
F45.759394278746001
sVlng
p558
F126.68477417673
ssVpois
p559
(lp560
sVstepOriginLocation
p561
(dp562
Vlat
p563
F45.762299269604
sVlng
p564
F126.67443468031
ssVstepInstruction
p565
V\u6b65\u884c1181\u7c73
p566
sVvehicle
p567
NsVduration
p568
I944
sVpath
p569
V126.68479214284,45.759350262562;126.68479214284,45.759350262562;126.68465739701,45.7592182138;126.68455858341,45.7592182138;126.68419027815,45.75919306162;126.68392078649,45.759167909428;126.68301349793,45.759105028897;126.68196248048,45.759029572167;126.68112705636,45.75896669148;126.68113603941,45.759105028897;126.68114502247,45.759186773573;126.68114502247,45.759224501844;126.68118993774,45.759840726636;126.68122586996,45.760180276145;126.6812797683,45.760997701617;126.68133366663,45.761456712174;126.68009400502,45.761513302253;126.67922264868,45.761551028941;126.677318241,45.761588755603;126.67605163023,45.761645345547;126.67472213807,45.761714510957;126.67455146003,45.761727086476;126.67447061253,45.761720798717;126.67436281587,45.761720798717;126.67439874809,45.762142077026;126.67440773114,45.762299269604
p570
sVtype
p571
I5
saa(lp572
(dp573
Vdistance
p574
I7578
sVstepOriginLocation
p575
(dp576
Vlat
p577
F45.731418092586999
sVlng
p578
F126.61281092231999
ssVstepDestinationLocation
p579
(dp580
Vlat
p581
F45.762299269604
sVlng
p582
F126.67443468031
ssVstepInstruction
p583
V\u4ece<font color="#313233">\u9f99\u8fd0\u5927\u53a6(\u82a6\u5bb6\u8857)\u7ad9</font>,\u4e5837\u8def(\u987e\u65b0\u8857\u65b9\u5411),\u7ecf\u8fc78\u7ad9,\u5230<font color="#313233">\u5eb7\u5b81\u5c0f\u533a\u7ad9</font>
p584
sVvehicle
p585
(dp586
Vline_color
p587
V#f78731
p588
sVtotal_price
p589
I0
sVtype
p590
I0
sVname
p591
V37\u8def
p592
sVzone_price
p593
I0
sVstop_num
p594
I8
sVstart_time
p595
V06:00
p596
sVend_time
p597
V20:00
p598
sVend_name
p599
V\u5eb7\u5b81\u5c0f\u533a\u7ad9
p600
sVis_rtbus
p601
I0
sVstart_uid
p602
V44636a1592f44f202202206e
p603
sVend_uid
p604
V0c46e645a09b9f3e581093c3
p605
sVstart_name
p606
V\u9f99\u8fd0\u5927\u53a6(\u82a6\u5bb6\u8857)\u7ad9
p607
sVuid
p608
V7b604322243fc60d8e7727c3
p609
ssVduration
p610
I1503
sVpath
p611
V126.67440773114,45.762299269604;126.67438078198,45.761192624373;126.67402145977,45.757130543964;126.67138044158,45.755583605361;126.67005993248,45.754747234398;126.66837111812,45.753829098362;126.66830823673,45.753678170436;126.66581993047,45.752187735097;126.66223569148,45.749911127832;126.66189433539,45.749911127832;126.66169670818,45.749841947695;126.66152603013,45.749691008914;126.66146314874,45.749521202295;126.65793280809,45.747395430985;126.65790585893,45.74728851134;126.65557924765,45.745892247649;126.65551636627,45.74570356067;126.65363890775,45.744470789942;126.65242619531,45.743439266847;126.65150094064,45.742401434615;126.64877009189,45.738583302847;126.64556314122,45.734330840172;126.64529364957,45.734249058849;126.64337127577,45.731663448713;126.62448889395,45.738488947005;126.62435414813,45.738382010189;126.62357262233,45.737174238901;126.61997041724,45.732217068807;126.61815584011,45.729562158539;126.61626939854,45.730122090943;126.61281092232,45.731418092587
p612
sVtype
p613
I3
saa(lp614
(dp615
Vdistance
p616
I416
sVsname
p617
V
sVename
p618
V
sVstepDestinationLocation
p619
(dp620
Vlat
p621
F45.731418092586999
sVlng
p622
F126.61281092231999
ssVpois
p623
(lp624
sVstepOriginLocation
p625
(dp626
Vlat
p627
F45.728989637540998
sVlng
p628
F126.61620651715
ssVstepInstruction
p629
V\u6b65\u884c416\u7c73
p630
sVvehicle
p631
NsVduration
p632
I332
sVpath
p633
V126.61281990538,45.731430674979;126.61361041423,45.731128696786;126.61353854979,45.731028037024;126.61369126172,45.730971415827;126.61405058393,45.730839299477;126.6153171947,45.730373744116;126.61556872024,45.730273082984;126.6157573644,45.730210169684;126.61591007633,45.730059177472;126.61627838159,45.728995929013
p634
sVtype
p635
I5
saasVduration
p636
I3379
sVtraffic_type
p637
I0
sVplan_trans_type
p638
I3
sasa(dp639
Vscheme
p640
(lp641
(dp642
Vdistance
p643
I10695
sVline_price
p644
(lp645
(dp646
Vline_price
p647
I0
sVline_type
p648
I1
sasVoriginLocation
p649
(dp650
Vlat
p651
F45.759394278746001
sVlng
p652
F126.68477417673
ssVprice
p653
I-1
sVdestinationLocation
p654
(dp655
Vlat
p656
F45.728989637540998
sVlng
p657
F126.61620651715
ssVarrive_time
p658
V2016-11-30T10:41:58
p659
sVsteps
p660
(lp661
(lp662
(dp663
Vdistance
p664
I963
sVsname
p665
V
sVename
p666
V
sVstepDestinationLocation
p667
(dp668
Vlat
p669
F45.759394278746001
sVlng
p670
F126.68477417673
ssVpois
p671
(lp672
sVstepOriginLocation
p673
(dp674
Vlat
p675
F45.758520236549998
sVlng
p676
F126.67404840894
ssVstepInstruction
p677
V\u6b65\u884c963\u7c73
p678
sVvehicle
p679
NsVduration
p680
I770
sVpath
p681
V126.68479214284,45.759350262562;126.68479214284,45.759350262562;126.68465739701,45.7592182138;126.68455858341,45.7592182138;126.68419027815,45.75919306162;126.68392078649,45.759167909428;126.68301349793,45.759105028897;126.68196248048,45.759029572167;126.68112705636,45.75896669148;126.68113603941,45.759105028897;126.68114502247,45.759186773573;126.68114502247,45.759224501844;126.67977959809,45.7592182138;126.67912383507,45.759211925756;126.67791112263,45.759205637711;126.67766858015,45.759186773573;126.67732722405,45.759149045276;126.67708468156,45.759086164724;126.67695891879,45.759123893064;126.67453349392,45.759274806165;126.6744167142,45.759281094202;126.67436281587,45.759281094202;126.67429993448,45.759281094202;126.67421908699,45.759293670274;126.67420112088,45.759293670274;126.67416518866,45.759293670274;126.67411129033,45.759293670274;126.67410230727,45.759211925756;126.67407535811,45.758972979552;126.67403942588,45.75852023655
p682
sVtype
p683
I5
saa(lp684
(dp685
Vdistance
p686
I9317
sVstepOriginLocation
p687
(dp688
Vlat
p689
F45.731424383783001
sVlng
p690
F126.61281990537999
ssVstepDestinationLocation
p691
(dp692
Vlat
p693
F45.758520236549998
sVlng
p694
F126.67404840894
ssVstepInstruction
p695
V\u4ece<font color="#313233">\u7406\u6cbb\u8857\u7ad9</font>,\u4e5893\u8def(\u8fd0\u534e\u5e7f\u573a\u65b9\u5411),\u7ecf\u8fc711\u7ad9,\u5230<font color="#313233">\u5eb7\u5b81\u5c0f\u533a\u7ad9</font>
p696
sVvehicle
p697
(dp698
Vline_color
p699
V#f78731
p700
sVtotal_price
p701
I0
sVtype
p702
I0
sVname
p703
V93\u8def
p704
sVzone_price
p705
I0
sVstop_num
p706
I11
sVstart_time
p707
V06:00
p708
sVend_time
p709
V20:30
p710
sVend_name
p711
V\u5eb7\u5b81\u5c0f\u533a\u7ad9
p712
sVis_rtbus
p713
I0
sVstart_uid
p714
Vfac162174293c1100869d9c8
p715
sVend_uid
p716
V51dd739faa41eeb7abf7290c
p717
sVstart_name
p718
V\u7406\u6cbb\u8857\u7ad9
p719
sVuid
p720
V3f2a2f3bd64eb41cdaeced14
p721
ssVduration
p722
I1882
sVpath
p723
V126.67403044283,45.75852023655;126.67396756144,45.757608451227;126.67402145977,45.757124255683;126.67138044158,45.755577316904;126.67005993248,45.754747234398;126.66837111812,45.753829098362;126.66830823673,45.753678170436;126.66581993047,45.752187735097;126.66223569148,45.749911127832;126.66189433539,45.749911127832;126.66169670818,45.749841947695;126.66152603013,45.749691008914;126.66146314874,45.749521202295;126.66031331769,45.748779078375;126.65793280809,45.747395430985;126.65790585893,45.74728851134;126.65557924765,45.745892247649;126.65551636627,45.74570356067;126.65363890775,45.744470789942;126.65242619531,45.743439266847;126.65150094064,45.742401434615;126.64903060049,45.738935563241;126.64556314122,45.734330840172;126.64529364957,45.734249058849;126.64352398771,45.731858474604;126.64406297102,45.731720069204;126.64576975149,45.733997423253;126.64569788704,45.734198731821;126.64642551451,45.735198972938;126.64733280307,45.736413077862;126.64774602361,45.736538890325;126.64909348187,45.73846378542;126.64429653045,45.740067813642;126.64336229272,45.740476676163;126.6410446645,45.741747275837;126.63925703654,45.742602712687;126.63793652744,45.743376368476;126.63759517134,45.743105904671;126.63747839163,45.74284801935;126.63704720498,45.738948143928;126.6348822887,45.740187327614;126.63315754213,45.740992467659;126.63156754137,45.741961136286;126.63000448979,45.740589899097;126.62740838686,45.741558574755;126.62696821716,45.74154599466;126.62655499663,45.741376163099;126.62448889395,45.738488947005;126.62435414813,45.738382010189;126.62357262233,45.737174238901;126.61997940029,45.732217068807;126.61815584011,45.729562158539;126.61626939854,45.730122090943;126.61281990538,45.731418092587
p724
sVtype
p725
I3
saa(lp726
(dp727
Vdistance
p728
I415
sVsname
p729
V
sVename
p730
V
sVstepDestinationLocation
p731
(dp732
Vlat
p733
F45.731424383783001
sVlng
p734
F126.61281990537999
ssVpois
p735
(lp736
sVstepOriginLocation
p737
(dp738
Vlat
p739
F45.728989637540998
sVlng
p740
F126.61620651715
ssVstepInstruction
p741
V\u6b65\u884c415\u7c73
p742
sVvehicle
p743
NsVduration
p744
I332
sVpath
p745
V126.61281990538,45.731424383783;126.61361041423,45.731128696786;126.61353854979,45.731028037024;126.61369126172,45.730971415827;126.61405058393,45.730839299477;126.6153171947,45.730373744116;126.61556872024,45.730273082984;126.6157573644,45.730210169684;126.61591007633,45.730059177472;126.61627838159,45.728995929013
p746
sVtype
p747
I5
saasVduration
p748
I3584
sVtraffic_type
p749
I0
sVplan_trans_type
p750
I3
sasasVtraffic_condition
p751
I0
ss.