(dp1
Vstatus
p2
I0
sVinfo
p3
(dp4
Vcopyright
p5
(dp6
Vtext
p7
V@2017 Baidu - Data
p8
sVimageUrl
p9
Vhttp://api.map.baidu.com/images/copyright_logo.png
p10
sssVmessage
p11
Vok
p12
sVtype
p13
I2
sVresult
p14
(dp15
Vorigin
p16
(dp17
VoriginPt
p18
(dp19
Vlat
p20
F45.767228602659998
sVlng
p21
F126.64082907117999
sssVtaxi
p22
(dp23
Vduration
p24
I851
sVdistance
p25
I11504
sVremark
p26
V\u5168\u7a0b11.5\u516c\u91cc;3.0\u516c\u91cc\u8d77\u6b65\uff1b\u71c3\u6cb9\u9644\u52a0\u8d391.0\u5143\uff1b\u91cc\u7a0b\u8d85\u8fc712.0\u516c\u91cc\uff0c\u8d85\u8fc7\u90e8\u5206\u6bcf\u516c\u91cc\u65362.9\u5143\u3002
p27
sVdetail
p28
(lp29
(dp30
Vstart_price
p31
V8.0
p32
sVkm_price
p33
V1.9
p34
sVtotal_price
p35
V26
p36
sVdesc
p37
V\u767d\u5929\uff0806:00-22:00\uff09
p38
sa(dp39
Vstart_price
p40
V8.0
p41
sVkm_price
p42
V2.5
p43
sVtotal_price
p44
V31
p45
sVdesc
p46
V\u591c\u95f4\uff0822:00-06:00\uff09
p47
sassVdestination
p48
(dp49
VdestinationPt
p50
(dp51
Vlat
p52
F45.676242054763001
sVlng
p53
F126.62805516682999
sssVerror
p54
I0
sVroutes
p55
(lp56
(dp57
Vscheme
p58
(lp59
(dp60
Vdistance
p61
I11690
sVline_price
p62
(lp63
(dp64
Vline_price
p65
I300
sVline_type
p66
I1
sasVtip_label_type
p67
I1
sVprice
p68
I-1
sVdestinationLocation
p69
(dp70
Vlat
p71
F45.676242054763001
sVlng
p72
F126.62805516682999
ssVarrive_time
p73
V2017-04-08T16:56:50
p74
sVsteps
p75
(lp76
(lp77
(dp78
Vdistance
p79
I970
sVsname
p80
V
sVename
p81
V 3B\u5165\u53e3
p82
sVstepDestinationLocation
p83
(dp84
Vlat
p85
F45.767228602659998
sVlng
p86
F126.64082907117999
ssVpois
p87
(lp88
sVstepOriginLocation
p89
(dp90
Vlat
p91
F45.764154108364004
sVlng
p92
F126.65016246543
ssVstepInstruction
p93
V\u6b65\u884c970\u7c73
p94
sVvehicle
p95
NsVduration
p96
I776
sVpath
p97
V126.64076618979,45.767203454114;126.64081110507,45.767134295554;126.64111652894,45.766838798919;126.64122432561,45.766851373276;126.64154771559,45.766650183221;126.64180822419,45.766530726281;126.64195195307,45.766455279659;126.64294907218,45.766008885047;126.64443127628,45.765367579452;126.64462890349,45.765185246115;126.64488042903,45.765084648154;126.64568890399,45.76474512869;126.64610212452,45.764569080741;126.64636263312,45.764455906764;126.64678483671,45.764279857897;126.64697348087,45.764198120733;126.6470273792,45.764172970812;126.64723398947,45.764078658507;126.64731483696,45.76404093354;126.64781788805,45.763839733282;126.64831195608,45.763613382119;126.64866229523,45.763449905704;126.64889585466,45.763355592168;126.64891382077,45.763393317602;126.64892280383,45.76343104301;126.64894975299,45.76346248083;126.64895873605,45.763481343513;126.64898568521,45.763500206191;126.64902161743,45.763531643972;126.64903958354,45.763550506632;126.64907551576,45.763581944384;126.64912941409,45.763600807027;126.64917432937,45.763607094573;126.64924619381,45.763638532294;126.64927314297,45.763638532294;126.64932704131,45.763644819836;126.64939890575,45.763657394917;126.64947077019,45.763657394917;126.64952466852,45.763632244751;126.64959653296,45.763625957208;126.6496683974,45.763600807027;126.64973127878,45.763569369285;126.64979416017,45.763537931526;126.65019839765,45.76387117087;126.65029721126,45.763814583198;126.65044992319,45.763952908517;126.65044992319,45.763952908517;126.65017144848,45.764141533395;126.65015348237,45.764154108364;126.65015348237,45.764154108364
p98
sVtype
p99
I5
sVfill
p100
Nsaa(lp101
(dp102
Vdistance
p103
I10720
sVstepOriginLocation
p104
(dp105
Vlat
p106
F45.676242054763001
sVlng
p107
F126.62805516682999
ssVstepDestinationLocation
p108
(dp109
Vlat
p110
F45.764154108364004
sVlng
p111
F126.65016246543
ssVvehicle
p112
(dp113
Vline_color
p114
V#581014
p115
sVtotal_price
p116
I0
sVtype
p117
I1
sVname
p118
V\u5730\u94c11\u53f7\u7ebf
p119
sVzone_price
p120
I0
sVstop_num
p121
I10
sVstart_time
p122
V06:00
p123
sVend_time
p124
V21:00
p125
sVend_name
p126
V\u54c8\u5357\u7ad9
p127
sVis_rtbus
p128
I0
sVstart_uid
p129
V9f4fbd7d3cea93690b69d937
p130
sVend_uid
p131
V3a5b3fc3e5b28824f72310a0
p132
sVstart_name
p133
V\u535a\u7269\u9986\u7ad9(3B\u53e3)
p134
sVuid
p135
V0a969688c61621bfd22dd6c1
p136
ssVstepInstruction
p137
V\u4ece<font color="#313233">\u535a\u7269\u9986\u7ad9</font>(3B\u53e3),\u4e58\u5730\u94c11\u53f7\u7ebf(\u54c8\u5357\u7ad9\u65b9\u5411),\u7ecf\u8fc710\u7ad9,\u5230<font color="#313233">\u54c8\u5357\u7ad9</font>
p138
sVis_depot
p139
I0
sVduration
p140
I1293
sVpath
p141
V126.65016246543,45.764154108364;126.64243703804,45.757488974798;126.63419059346,45.750659525617;126.62454279228,45.742445464256;126.62181194353,45.738885240465;126.61608973744,45.730694600256;126.6159370255,45.73029195696;126.61594600855,45.730008846643;126.61765278902,45.723238934183;126.61990753585,45.713390886573;126.62204550297,45.703415204519;126.62805516683,45.676242054763
p142
sVtype
p143
I3
sVfill
p144
NsaasVtip_label_background
p145
V#67C395
p146
sVduration
p147
I2219
sVtraffic_type
p148
I10
sVtip_label
p149
V<font color="#ffffff">\u6700\u5feb</font>
p150
sVplan_trans_type
p151
I6
sVoriginLocation
p152
(dp153
Vlat
p154
F45.767228602659998
sVlng
p155
F126.64082907117999
ssasa(dp156
Vscheme
p157
(lp158
(dp159
Vdistance
p160
I11844
sVline_price
p161
(lp162
(dp163
Vline_price
p164
I300
sVline_type
p165
I1
sasVoriginLocation
p166
(dp167
Vlat
p168
F45.767228602659998
sVlng
p169
F126.64082907117999
ssVprice
p170
I-1
sVdestinationLocation
p171
(dp172
Vlat
p173
F45.676242054763001
sVlng
p174
F126.62805516682999
ssVarrive_time
p175
V2017-04-08T17:00:22
p176
sVsteps
p177
(lp178
(lp179
(dp180
Vdistance
p181
I213
sVsname
p182
V
sVename
p183
V
sVstepDestinationLocation
p184
(dp185
Vlat
p186
F45.767228602659998
sVlng
p187
F126.64082907117999
ssVpois
p188
(lp189
sVstepOriginLocation
p190
(dp191
Vlat
p192
F45.768850659748999
sVlng
p193
F126.6415656817
ssVstepInstruction
p194
V\u6b65\u884c213\u7c73
p195
sVvehicle
p196
NsVduration
p197
I170
sVpath
p198
V126.64076618979,45.767203454114;126.64074822368,45.767216028388;126.64062246091,45.76759325529;126.64057754564,45.767838451399;126.64063144397,45.768008201915;126.64073924063,45.768177951912;126.64083805424,45.768265970224;126.64128720699,45.768599181139;126.6414848342,45.768706059688;126.64149381726,45.768724920587;126.64154771559,45.768850659749
p199
sVtype
p200
I5
sVfill
p201
Nsaa(lp202
(dp203
Vdistance
p204
I1643
sVstepOriginLocation
p205
(dp206
Vlat
p207
F45.758595693974002
sVlng
p208
F126.64374856409
ssVstepDestinationLocation
p209
(dp210
Vlat
p211
F45.768850659748999
sVlng
p212
F126.6415656817
ssVvehicle
p213
(dp214
Vline_color
p215
V#f78731
p216
sVtotal_price
p217
I0
sVtype
p218
I0
sVname
p219
V94\u8def
p220
sVzone_price
p221
I0
sVstop_num
p222
I2
sVstart_time
p223
V05:30
p224
sVend_time
p225
V21:00
p226
sVend_name
p227
V\u54c8\u94c1\u8def\u5c40\u7ad9
p228
sVis_rtbus
p229
I0
sVstart_uid
p230
Vefbab7a96522fdb9bea240d1
p231
sVend_uid
p232
Vf79799e440bee45075e5b69a
p233
sVstart_name
p234
V\u54c8\u7ad9
p235
sVuid
p236
V95ee4e100e275909110daa54
p237
ssVstepInstruction
p238
V\u4ece<font color="#313233">\u54c8\u7ad9</font>,\u4e5894\u8def(\u94c1\u9053\u6280\u672f\u5b66\u9662\u65b9\u5411)<font color="#7a7c80">\u621698\u8def,64\u8def</font>,\u7ecf\u8fc72\u7ad9,\u5230<font color="#313233">\u54c8\u94c1\u8def\u5c40\u7ad9</font>
p239
sVis_depot
p240
I0
sVduration
p241
I333
sVpath
p242
V126.64155669864,45.768850659749;126.6414848342,45.76869977272;126.64151178337,45.768385423424;126.64162856308,45.768083646422;126.64187110557,45.767932757305;126.64196093612,45.767807016061;126.64132313921,45.767109146966;126.64129619005,45.76688909633;126.64136805449,45.766706767998;126.64454805599,45.765323568012;126.64462890349,45.765178958747;126.64889585466,45.763349304594;126.64893178688,45.763148101825;126.64903958354,45.763053787776;126.64374856409,45.758595693974
p243
sVtype
p244
I3
sVfill
p245
Nsa(dp246
Vdistance
p247
I1645
sVstepOriginLocation
p248
(dp249
Vlat
p250
F45.758595693974002
sVlng
p251
F126.64374856409
ssVstepDestinationLocation
p252
(dp253
Vlat
p254
F45.768850659748999
sVlng
p255
F126.64154771558999
ssVis_depot
p256
I0
sVvehicle
p257
(dp258
Vline_color
p259
V#f78731
p260
sVtotal_price
p261
I0
sVtype
p262
I0
sVname
p263
V98\u8def
p264
sVzone_price
p265
I0
sVstop_num
p266
I2
sVstart_time
p267
V06:30
p268
sVend_time
p269
V19:00
p270
sVend_name
p271
V\u54c8\u94c1\u8def\u5c40\u7ad9
p272
sVis_rtbus
p273
I0
sVstart_uid
p274
V99f6351583c1cba8abf729d8
p275
sVend_uid
p276
V5fdc7b8ac13edcb221026264
p277
sVstart_name
p278
V\u54c8\u7ad9
p279
sVuid
p280
Va1554c41d6b563711e1d11af
p281
ssVduration
p282
I334
sVtype
p283
I3
sa(dp284
Vdistance
p285
I1646
sVstepOriginLocation
p286
(dp287
Vlat
p288
F45.758583117744003
sVlng
p289
F126.64375754714
ssVstepDestinationLocation
p290
(dp291
Vlat
p292
F45.768838085844997
sVlng
p293
F126.64155669864
ssVis_depot
p294
I0
sVvehicle
p295
(dp296
Vline_color
p297
V#f78731
p298
sVtotal_price
p299
I0
sVtype
p300
I0
sVname
p301
V64\u8def
p302
sVzone_price
p303
I0
sVstop_num
p304
I2
sVstart_time
p305
V05:30
p306
sVend_time
p307
V20:30
p308
sVend_name
p309
V\u54c8\u94c1\u8def\u5c40\u7ad9
p310
sVis_rtbus
p311
I0
sVstart_uid
p312
Ve001ea259544ee2538221c32
p313
sVend_uid
p314
V61d264831d54c1bf82288a94
p315
sVstart_name
p316
V\u54c8\u7ad9
p317
sVuid
p318
V2ed37a02209a4f4bb15c6a57
p319
ssVduration
p320
I334
sVtype
p321
I3
saa(lp322
(dp323
Vdistance
p324
I221
sVsname
p325
V
sVename
p326
V 3\u53f7\u5165\u53e3
p327
sVstepDestinationLocation
p328
(dp329
Vlat
p330
F45.758595693974002
sVlng
p331
F126.64374856409
ssVpois
p332
(lp333
sVstepOriginLocation
p334
(dp335
Vlat
p336
F45.757488974798001
sVlng
p337
F126.64243703804
ssVstepInstruction
p338
V\u6b65\u884c221\u7c73
p339
sVvehicle
p340
NsVduration
p341
I176
sVpath
p342
V126.64374856409,45.758595693974;126.64319161467,45.758111507053;126.64328144522,45.758061201676;126.64311076718,45.757916573462;126.64317364856,45.757885132496;126.64291313996,45.757658757015;126.64291313996,45.757658757015;126.64275144497,45.757753080245;126.64275144497,45.757753080245;126.64242805499,45.757476398316;126.64243703804,45.757476398316;126.64243703804,45.757476398316
p343
sVtype
p344
I5
sVfill
p345
Nsaa(lp346
(dp347
Vdistance
p348
I9767
sVstepOriginLocation
p349
(dp350
Vlat
p351
F45.676242054763001
sVlng
p352
F126.62805516682999
ssVstepDestinationLocation
p353
(dp354
Vlat
p355
F45.757488974798001
sVlng
p356
F126.64243703804
ssVvehicle
p357
(dp358
Vline_color
p359
V#581014
p360
sVtotal_price
p361
I0
sVtype
p362
I1
sVname
p363
V\u5730\u94c11\u53f7\u7ebf
p364
sVzone_price
p365
I0
sVstop_num
p366
I9
sVstart_time
p367
V06:00
p368
sVend_time
p369
V21:00
p370
sVend_name
p371
V\u54c8\u5357\u7ad9
p372
sVis_rtbus
p373
I0
sVstart_uid
p374
Vb9b923cac190adeb223bf2d1
p375
sVend_uid
p376
V3a5b3fc3e5b28824f72310a0
p377
sVstart_name
p378
V\u94c1\u8def\u5c40\u7ad9(3\u53f7\u53e3)
p379
sVuid
p380
V0a969688c61621bfd22dd6c1
p381
ssVstepInstruction
p382
V\u4ece<font color="#313233">\u94c1\u8def\u5c40\u7ad9</font>(3\u53f7\u53e3),\u4e58\u5730\u94c11\u53f7\u7ebf(\u54c8\u5357\u7ad9\u65b9\u5411),\u7ecf\u8fc79\u7ad9,\u5230<font color="#313233">\u54c8\u5357\u7ad9</font>
p383
sVis_depot
p384
I0
sVduration
p385
I1173
sVpath
p386
V126.64243703804,45.757488974798;126.63419059346,45.750659525617;126.62454279228,45.742445464256;126.62181194353,45.738885240465;126.61608973744,45.730694600256;126.6159370255,45.73029195696;126.61594600855,45.730008846643;126.61765278902,45.723238934183;126.61990753585,45.713390886573;126.62204550297,45.703415204519;126.62805516683,45.676242054763
p387
sVtype
p388
I3
sVfill
p389
NsaasVduration
p390
I2303
sVtraffic_type
p391
I10
sVplan_trans_type
p392
I4
sasa(dp393
Vscheme
p394
(lp395
(dp396
Vdistance
p397
I12861
sVline_price
p398
(lp399
(dp400
Vline_price
p401
I300
sVline_type
p402
I1
sasVtip_label_type
p403
I4
sVprice
p404
I-1
sVdestinationLocation
p405
(dp406
Vlat
p407
F45.676242054763001
sVlng
p408
F126.62805516682999
ssVarrive_time
p409
V2017-04-08T17:00:40
p410
sVsteps
p411
(lp412
(lp413
(dp414
Vdistance
p415
I882
sVsname
p416
V
sVename
p417
V
sVstepDestinationLocation
p418
(dp419
Vlat
p420
F45.767228602659998
sVlng
p421
F126.64082907117999
ssVpois
p422
(lp423
sVstepOriginLocation
p424
(dp425
Vlat
p426
F45.767297761100998
sVlng
p427
F126.64166449530001
ssVstepInstruction
p428
V\u6b65\u884c882\u7c73
p429
sVvehicle
p430
NsVduration
p431
I705
sVpath
p432
V126.64076618979,45.767203454114;126.64074822368,45.767216028388;126.64062246091,45.76759325529;126.64057754564,45.767838451399;126.64063144397,45.768008201915;126.64073924063,45.768177951912;126.64083805424,45.768265970224;126.64088296951,45.76839799743;126.64090991868,45.768454580422;126.64100873228,45.768630616028;126.64115246116,45.768819224985;126.64134110532,45.768957537812;126.64152974948,45.769064415669;126.64158364781,45.769083276446;126.64173635975,45.769108424139;126.64191602085,45.769278170765;126.64228432611,45.769737112744;126.64241907193,45.769894283781;126.64296703829,45.770573257537;126.6430658519,45.770692705763;126.64309280107,45.770623551558;126.64311076718,45.770579544292;126.64312873329,45.77054182375;126.6431466994,45.770491529655;126.64315568245,45.770434948743;126.64315568245,45.770334360312;126.6431466994,45.77026520566;126.64311975023,45.770170903723;126.64308381801,45.770095462057;126.6430658519,45.770032593924;126.64304788579,45.769913144275;126.64242805499,45.769297031469;126.64179924113,45.768630616028;126.64163754614,45.768523737334;126.64178127502,45.76836656241;126.64184415641,45.768234535129;126.64187110557,45.767825877265;126.64179924113,45.767580681101;126.64167347836,45.767291473974;126.64167347836,45.767291473974
p433
sVtype
p434
I5
sVfill
p435
Nsaa(lp436
(dp437
Vdistance
p438
I953
sVstepOriginLocation
p439
(dp440
Vlat
p441
F45.762324420375997
sVlng
p442
F126.65066551651
ssVstepDestinationLocation
p443
(dp444
Vlat
p445
F45.767297761100998
sVlng
p446
F126.64166449530001
ssVvehicle
p447
(dp448
Vline_color
p449
V#f78731
p450
sVtotal_price
p451
I0
sVtype
p452
I0
sVname
p453
V108\u8def
p454
sVzone_price
p455
I0
sVstop_num
p456
I1
sVstart_time
p457
V05:30
p458
sVend_time
p459
V21:00
p460
sVend_name
p461
V\u535a\u7269\u9986\u7ad9
p462
sVis_rtbus
p463
I0
sVstart_uid
p464
Va3f780698cf41854fb2213d3
p465
sVend_uid
p466
V61cd053d33f66739c4f02534
p467
sVstart_name
p468
V\u54c8\u7ad9
p469
sVuid
p470
V92b181bdc4b2b3b83f9a5ea6
p471
ssVstepInstruction
p472
V\u4ece<font color="#313233">\u54c8\u7ad9</font>,\u4e58108\u8def(\u4e09\u5408\u56ed\u5c0f\u533a\u65b9\u5411)<font color="#7a7c80">\u6216103\u8def,115\u8def,101\u8def</font>,\u7ecf\u8fc71\u7ad9,\u5230<font color="#313233">\u535a\u7269\u9986\u7ad9</font>
p473
sVis_depot
p474
I0
sVduration
p475
I188
sVpath
p476
V126.64167347836,45.767297761101;126.64143093587,45.767002265338;126.64143093587,45.766819937378;126.64153873253,45.766637608819;126.64454805599,45.76531728066;126.64462890349,45.765178958747;126.64889585466,45.763349304594;126.64894076994,45.763148101825;126.64909348187,45.763016062111;126.64934500742,45.762940610705;126.64962348212,45.762965761185;126.65066551651,45.762324420376
p477
sVtype
p478
I3
sVfill
p479
Nsa(dp480
Vdistance
p481
I954
sVstepOriginLocation
p482
(dp483
Vlat
p484
F45.762318132684001
sVlng
p485
F126.65069246568
ssVstepDestinationLocation
p486
(dp487
Vlat
p488
F45.767297761100998
sVlng
p489
F126.64165551225
ssVis_depot
p490
I0
sVvehicle
p491
(dp492
Vline_color
p493
V#f78731
p494
sVtotal_price
p495
I0
sVtype
p496
I0
sVname
p497
V103\u8def
p498
sVzone_price
p499
I0
sVstop_num
p500
I1
sVstart_time
p501
V05:30
p502
sVend_time
p503
V22:00
p504
sVend_name
p505
V\u535a\u7269\u9986\u7ad9
p506
sVis_rtbus
p507
I0
sVstart_uid
p508
V1f03de3a1634bac21029353e
p509
sVend_uid
p510
V96b40553bf3a6c40c92915f9
p511
sVstart_name
p512
V\u54c8\u7ad9
p513
sVuid
p514
Ve62731d4eab8d63de315f924
p515
ssVduration
p516
I189
sVtype
p517
I3
sa(dp518
Vdistance
p519
I955
sVstepOriginLocation
p520
(dp521
Vlat
p522
F45.762318132684001
sVlng
p523
F126.65068348263
ssVstepDestinationLocation
p524
(dp525
Vlat
p526
F45.767297761100998
sVlng
p527
F126.64166449530001
ssVis_depot
p528
I0
sVvehicle
p529
(dp530
Vline_color
p531
V#f78731
p532
sVtotal_price
p533
I0
sVtype
p534
I0
sVname
p535
V115\u8def
p536
sVzone_price
p537
I0
sVstop_num
p538
I1
sVstart_time
p539
V06:00
p540
sVend_time
p541
V20:00
p542
sVend_name
p543
V\u535a\u7269\u9986\u7ad9
p544
sVis_rtbus
p545
I0
sVstart_uid
p546
V74b4b2269abc4eda25e0a04c
p547
sVend_uid
p548
Vbfcab805b28908726ca3cce6
p549
sVstart_name
p550
V\u54c8\u7ad9
p551
sVuid
p552
Vd8db763a16104a0cb54f54a6
p553
ssVduration
p554
I189
sVtype
p555
I3
sa(dp556
Vdistance
p557
I956
sVstepOriginLocation
p558
(dp559
Vlat
p560
F45.762311844990997
sVlng
p561
F126.65070144873999
ssVstepDestinationLocation
p562
(dp563
Vlat
p564
F45.767297761100998
sVlng
p565
F126.64166449530001
ssVis_depot
p566
I0
sVvehicle
p567
(dp568
Vline_color
p569
V#f78731
p570
sVtotal_price
p571
I0
sVtype
p572
I0
sVname
p573
V101\u8def
p574
sVzone_price
p575
I0
sVstop_num
p576
I1
sVstart_time
p577
V05:30
p578
sVend_time
p579
V22:00
p580
sVend_name
p581
V\u535a\u7269\u9986\u7ad9
p582
sVis_rtbus
p583
I0
sVstart_uid
p584
V79fcb9c3ddf65a65ae080fce
p585
sVend_uid
p586
Vd7494259f6dab07f1df74d8c
p587
sVstart_name
p588
V\u54c8\u7ad9
p589
sVuid
p590
V0962a8ef88813cb716c8f624
p591
ssVduration
p592
I189
sVtype
p593
I3
saa(lp594
(dp595
Vdistance
p596
I306
sVsname
p597
V
sVename
p598
V 3B\u5165\u53e3
p599
sVstepDestinationLocation
p600
(dp601
Vlat
p602
F45.762324420375997
sVlng
p603
F126.65066551651
ssVpois
p604
(lp605
sVstepOriginLocation
p606
(dp607
Vlat
p608
F45.764154108364004
sVlng
p609
F126.65016246543
ssVstepInstruction
p610
V\u6b65\u884c306\u7c73
p611
sVvehicle
p612
NsVduration
p613
I244
sVpath
p614
V126.65068348263,45.762336995757;126.65066551651,45.762349571135;126.65044094014,45.762469037088;126.65035110959,45.762531913802;126.65009958404,45.762676529974;126.64996483822,45.762764557024;126.649928906,45.762789707584;126.65001873655,45.762858871565;126.65005466877,45.762877734455;126.65013551626,45.762934323083;126.65022534682,45.763003486884;126.64990195683,45.763198402586;126.64991093989,45.763229840538;126.649928906,45.763280141224;126.64991992294,45.763330441865;126.64991093989,45.763355592168;126.64990195683,45.763399605172;126.64987500767,45.763449905704;126.6498480585,45.763481343513;126.64983009239,45.763500206191;126.64979416017,45.763537931526;126.65019839765,45.76387117087;126.65029721126,45.763814583198;126.65044992319,45.763952908517;126.65044992319,45.763952908517;126.65017144848,45.764141533395;126.65015348237,45.764154108364;126.65015348237,45.764154108364
p615
sVtype
p616
I5
sVfill
p617
Nsaa(lp618
(dp619
Vdistance
p620
I10720
sVstepOriginLocation
p621
(dp622
Vlat
p623
F45.676242054763001
sVlng
p624
F126.62805516682999
ssVstepDestinationLocation
p625
(dp626
Vlat
p627
F45.764154108364004
sVlng
p628
F126.65016246543
ssVvehicle
p629
(dp630
Vline_color
p631
V#581014
p632
sVtotal_price
p633
I0
sVtype
p634
I1
sVname
p635
V\u5730\u94c11\u53f7\u7ebf
p636
sVzone_price
p637
I0
sVstop_num
p638
I10
sVstart_time
p639
V06:00
p640
sVend_time
p641
V21:00
p642
sVend_name
p643
V\u54c8\u5357\u7ad9
p644
sVis_rtbus
p645
I0
sVstart_uid
p646
V9f4fbd7d3cea93690b69d937
p647
sVend_uid
p648
V3a5b3fc3e5b28824f72310a0
p649
sVstart_name
p650
V\u535a\u7269\u9986\u7ad9(3B\u53e3)
p651
sVuid
p652
V0a969688c61621bfd22dd6c1
p653
ssVstepInstruction
p654
V\u4ece<font color="#313233">\u535a\u7269\u9986\u7ad9</font>(3B\u53e3),\u4e58\u5730\u94c11\u53f7\u7ebf(\u54c8\u5357\u7ad9\u65b9\u5411),\u7ecf\u8fc710\u7ad9,\u5230<font color="#313233">\u54c8\u5357\u7ad9</font>
p655
sVis_depot
p656
I0
sVduration
p657
I1293
sVpath
p658
V126.65016246543,45.764154108364;126.64243703804,45.757488974798;126.63419059346,45.750659525617;126.62454279228,45.742445464256;126.62181194353,45.738885240465;126.61608973744,45.730694600256;126.6159370255,45.73029195696;126.61594600855,45.730008846643;126.61765278902,45.723238934183;126.61990753585,45.713390886573;126.62204550297,45.703415204519;126.62805516683,45.676242054763
p659
sVtype
p660
I3
sVfill
p661
NsaasVtip_label_background
p662
V#67C395
p663
sVduration
p664
I2880
sVtraffic_type
p665
I10
sVtip_label
p666
V<font color="#ffffff">\u79bb\u4e0a\u8f66\u7ad9\u8fd1</font>
p667
sVplan_trans_type
p668
I4
sVoriginLocation
p669
(dp670
Vlat
p671
F45.767228602659998
sVlng
p672
F126.64082907117999
ssasa(dp673
Vscheme
p674
(lp675
(dp676
Vdistance
p677
I11795
sVline_price
p678
(lp679
(dp680
Vline_price
p681
I0
sVline_type
p682
I1
sasVoriginLocation
p683
(dp684
Vlat
p685
F45.767228602659998
sVlng
p686
F126.64082907117999
ssVprice
p687
I-1
sVdestinationLocation
p688
(dp689
Vlat
p690
F45.676242054763001
sVlng
p691
F126.62805516682999
ssVarrive_time
p692
V2017-04-08T17:07:07
p693
sVsteps
p694
(lp695
(lp696
(dp697
Vdistance
p698
I212
sVsname
p699
V
sVename
p700
V
sVstepDestinationLocation
p701
(dp702
Vlat
p703
F45.767228602659998
sVlng
p704
F126.64082907117999
ssVpois
p705
(lp706
sVstepOriginLocation
p707
(dp708
Vlat
p709
F45.768850659748999
sVlng
p710
F126.64154771558999
ssVstepInstruction
p711
V\u6b65\u884c212\u7c73
p712
sVvehicle
p713
NsVduration
p714
I169
sVpath
p715
V126.64076618979,45.767203454114;126.64074822368,45.767216028388;126.64062246091,45.76759325529;126.64057754564,45.767838451399;126.64063144397,45.768008201915;126.64073924063,45.768177951912;126.64083805424,45.768265970224;126.64128720699,45.768599181139;126.6414848342,45.768706059688;126.64149381726,45.768724920587;126.64154771559,45.768844372797
p716
sVtype
p717
I5
sVfill
p718
Nsaa(lp719
(dp720
Vdistance
p721
I11561
sVstepOriginLocation
p722
(dp723
Vlat
p724
F45.676449870223998
sVlng
p725
F126.62802821766
ssVstepDestinationLocation
p726
(dp727
Vlat
p728
F45.768850659748999
sVlng
p729
F126.64154771558999
ssVvehicle
p730
(dp731
Vline_color
p732
V#f78731
p733
sVtotal_price
p734
I0
sVtype
p735
I0
sVname
p736
V98\u8def
p737
sVzone_price
p738
I0
sVstop_num
p739
I20
sVstart_time
p740
V06:30
p741
sVend_time
p742
V19:00
p743
sVend_name
p744
V\u65b0\u4e2d\u65b0\u96c6\u56e2\u7ad9
p745
sVis_rtbus
p746
I0
sVstart_uid
p747
V99f6351583c1cba8abf729d8
p748
sVend_uid
p749
Vf43056f5f034cb8a2bd7ab51
p750
sVstart_name
p751
V\u54c8\u7ad9
p752
sVuid
p753
Va1554c41d6b563711e1d11af
p754
ssVstepInstruction
p755
V\u4ece<font color="#313233">\u54c8\u7ad9</font>,\u4e5898\u8def(\u7ea2\u661f\u51ef\u60a6\u5c0f\u533a\u65b9\u5411),\u7ecf\u8fc720\u7ad9,\u5230<font color="#313233">\u65b0\u4e2d\u65b0\u96c6\u56e2\u7ad9</font>
p756
sVis_depot
p757
I0
sVduration
p758
I2526
sVpath
p759
V126.64154771559,45.768856946699;126.6414848342,45.768687198782;126.64149381726,45.768102507533;126.64187110557,45.767882460842;126.64189805474,45.767769293631;126.64134110532,45.767115434114;126.64125127477,45.766882809156;126.64136805449,45.766700480803;126.64454805599,45.765310993308;126.64462890349,45.765172671379;126.64889585466,45.763336729442;126.64893178688,45.763141814227;126.64903958354,45.763047500167;126.64001161317,45.755457836097;126.63391211875,45.750458276785;126.63124415139,45.748080969689;126.62916906566,45.74648975218;126.62440804646,45.742420304465;126.62209041824,45.739067660312;126.61873075564,45.734412621375;126.61607177133,45.730537318066;126.6157573644,45.730210169684;126.61590109328,45.730059177472;126.61672753435,45.727750203718;126.62802821766,45.676449870224
p760
sVtype
p761
I3
sVfill
p762
Nsaa(lp763
(dp764
Vdistance
p765
I22
sVsname
p766
V
sVename
p767
V
sVstepDestinationLocation
p768
(dp769
Vlat
p770
F45.676449870223998
sVlng
p771
F126.62802821766
ssVpois
p772
(lp773
sVstepOriginLocation
p774
(dp775
Vlat
p776
F45.676242054763001
sVlng
p777
F126.62805516682999
ssVstepInstruction
p778
V\u6b65\u884c22\u7c73
p779
sVvehicle
p780
NsVduration
p781
I17
sVpath
p782
V126.62802821766,45.676449870224;126.62804618377,45.676361706184;126.62807313294,45.676242054763
p783
sVtype
p784
I5
sVfill
p785
NsaasVduration
p786
I3313
sVtraffic_type
p787
I0
sVplan_trans_type
p788
I3
sasa(dp789
Vscheme
p790
(lp791
(dp792
Vdistance
p793
I11397
sVline_price
p794
(lp795
(dp796
Vline_price
p797
I0
sVline_type
p798
I1
sasVoriginLocation
p799
(dp800
Vlat
p801
F45.767228602659998
sVlng
p802
F126.64082907117999
ssVprice
p803
I-1
sVdestinationLocation
p804
(dp805
Vlat
p806
F45.676242054763001
sVlng
p807
F126.62805516682999
ssVarrive_time
p808
V2017-04-08T17:05:46
p809
sVsteps
p810
(lp811
(lp812
(dp813
Vdistance
p814
I485
sVsname
p815
V
sVename
p816
V
sVstepDestinationLocation
p817
(dp818
Vlat
p819
F45.767228602659998
sVlng
p820
F126.64082907117999
ssVpois
p821
(lp822
sVstepOriginLocation
p823
(dp824
Vlat
p825
F45.764543930987998
sVlng
p826
F126.63816110382
ssVstepInstruction
p827
V\u6b65\u884c485\u7c73
p828
sVvehicle
p829
NsVduration
p830
I388
sVpath
p831
V126.64076618979,45.767203454114;126.64081110507,45.767134295554;126.64111652894,45.766838798919;126.64122432561,45.766851373276;126.64118839338,45.76666904482;126.64116144422,45.766599885593;126.64116144422,45.766543300708;126.64111652894,45.766442705212;126.64108059672,45.766392407396;126.64098178312,45.766254088167;126.64056856258,45.765763680843;126.64033500315,45.765568774163;126.63968822318,45.764977762621;126.63948161292,45.765040636489;126.63924805348,45.764179258293;126.63841262936,45.764462194214
p832
sVtype
p833
I5
sVfill
p834
Nsaa(lp835
(dp836
Vdistance
p837
I10888
sVstepOriginLocation
p838
(dp839
Vlat
p840
F45.676468762500001
sVlng
p841
F126.62801025154999
ssVstepDestinationLocation
p842
(dp843
Vlat
p844
F45.764543930987998
sVlng
p845
F126.63816110382
ssVvehicle
p846
(dp847
Vline_color
p848
V#f78731
p849
sVtotal_price
p850
I0
sVtype
p851
I0
sVname
p852
V343\u8def
p853
sVzone_price
p854
I0
sVstop_num
p855
I11
sVstart_time
p856
V05:30
p857
sVend_time
p858
V20:00
p859
sVend_name
p860
V\u65b0\u4e2d\u65b0\u96c6\u56e2\u7ad9
p861
sVis_rtbus
p862
I0
sVstart_uid
p863
Ve2ed7b162db948d1a5c75699
p864
sVend_uid
p865
Vd2f1a48125ddba3b40024522
p866
sVstart_name
p867
V\u54c8\u7ad9
p868
sVuid
p869
Vd5a38920df4728442bd7aba7
p870
ssVstepInstruction
p871
V\u4ece<font color="#313233">\u54c8\u7ad9</font>,\u4e58343\u8def(\u5e73\u623f\u706b\u8f66\u7ad9\u65b9\u5411),\u7ecf\u8fc711\u7ad9,\u5230<font color="#313233">\u65b0\u4e2d\u65b0\u96c6\u56e2\u7ad9</font>
p872
sVis_depot
p873
I1
sVduration
p874
I2144
sVpath
p875
V126.63817008687,45.764556505866;126.63926601959,45.764179258293;126.6389246635,45.762557064468;126.63679567944,45.763802008152;126.63013923561,45.75645769386;126.6295822862,45.75601750713;126.62890855706,45.755306912605;126.62864804847,45.754910736481;126.62851330264,45.754325899886;126.62855821791,45.754206416382;126.62873787902,45.754074355367;126.62852228569,45.753363735935;126.62854923486,45.751973914082;126.62882770957,45.750892218667;126.63017516783,45.748904862789;126.63066025281,45.748483483878;126.63124415139,45.748093548301;126.62916906566,45.746502331154;126.62440804646,45.742432884362;126.61588312717,45.730273082984;126.61576634745,45.73019129568;126.61591007633,45.730034012063;126.61672753435,45.727743912105;126.62801923461,45.6764687625
p876
sVtype
p877
I3
sVfill
p878
Nsaa(lp879
(dp880
Vdistance
p881
I24
sVsname
p882
V
sVename
p883
V
sVstepDestinationLocation
p884
(dp885
Vlat
p886
F45.676468762500001
sVlng
p887
F126.62801025154999
ssVpois
p888
(lp889
sVstepOriginLocation
p890
(dp891
Vlat
p892
F45.676242054763001
sVlng
p893
F126.62805516682999
ssVstepInstruction
p894
V\u6b65\u884c24\u7c73
p895
sVvehicle
p896
NsVduration
p897
I19
sVpath
p898
V126.62802821766,45.6764687625;126.62802821766,45.67645616765;126.62804618377,45.676361706184;126.62807313294,45.676242054763
p899
sVtype
p900
I5
sVfill
p901
NsaasVduration
p902
I3151
sVtraffic_type
p903
I0
sVplan_trans_type
p904
I3
sasasVtraffic_condition
p905
I1
ss.