(dp1
Vstatus
p2
I0
sVinfo
p3
(dp4
Vcopyright
p5
(dp6
Vtext
p7
V@2016 Baidu - Data
p8
sVimageUrl
p9
Vhttp://api.map.baidu.com/images/copyright_logo.png
p10
sssVmessage
p11
Vok
p12
sVtype
p13
I2
sVresult
p14
(dp15
Vorigin
p16
(dp17
VoriginPt
p18
(dp19
Vlat
p20
F45.750659525617003
sVlng
p21
F126.63419059346
sssVtaxi
p22
(dp23
Vduration
p24
I593
sVdistance
p25
I5591
sVremark
p26
V\u5168\u7a0b5.6\u516c\u91cc;3.0\u516c\u91cc\u8d77\u6b65\uff1b\u71c3\u6cb9\u9644\u52a0\u8d391.0\u5143\uff1b\u91cc\u7a0b\u8d85\u8fc712.0\u516c\u91cc\uff0c\u8d85\u8fc7\u90e8\u5206\u6bcf\u516c\u91cc\u65362.9\u5143\u3002
p27
sVdetail
p28
(lp29
(dp30
Vstart_price
p31
V8.0
p32
sVkm_price
p33
V1.9
p34
sVtotal_price
p35
V14
p36
sVdesc
p37
V\u767d\u5929\uff0806:00-22:00\uff09
p38
sa(dp39
Vstart_price
p40
V8.0
p41
sVkm_price
p42
V2.5
p43
sVtotal_price
p44
V16
p45
sVdesc
p46
V\u591c\u95f4\uff0822:00-06:00\uff09
p47
sassVdestination
p48
(dp49
VdestinationPt
p50
(dp51
Vlat
p52
F45.782240247225999
sVlng
p53
F126.62405770731
sssVerror
p54
I0
sVroutes
p55
(lp56
(dp57
Vscheme
p58
(lp59
(dp60
Vdistance
p61
I6261
sVline_price
p62
(lp63
(dp64
Vline_price
p65
I0
sVline_type
p66
I1
sasVtip_label_type
p67
I6
sVprice
p68
I-1
sVdestinationLocation
p69
(dp70
Vlat
p71
F45.782240247225999
sVlng
p72
F126.62405770731
ssVarrive_time
p73
V2016-10-28T15:54:05
p74
sVsteps
p75
(lp76
(lp77
(dp78
Vdistance
p79
I269
sVsname
p80
V
sVename
p81
V
sVstepDestinationLocation
p82
(dp83
Vlat
p84
F45.750659525617003
sVlng
p85
F126.63419059346
ssVpois
p86
(lp87
sVstepOriginLocation
p88
(dp89
Vlat
p90
F45.749577804559003
sVlng
p91
F126.6331216099
ssVstepInstruction
p92
V\u6b65\u884c269\u7c73
p93
sVvehicle
p94
NsVduration
p95
I215
sVpath
p96
V126.63417262735,45.750665814631;126.63410974597,45.750621791516;126.63391211875,45.750470854858;126.63366957627,45.750257027223;126.63321144046,45.749835658587;126.63256466049,45.749238190107;126.63266347409,45.74916900913;126.63310364379,45.749584093696
p97
sVtype
p98
I5
saa(lp99
(dp100
Vdistance
p101
I5564
sVstepOriginLocation
p102
(dp103
Vlat
p104
F45.782120823896001
sVlng
p105
F126.62826177709999
ssVstepDestinationLocation
p106
(dp107
Vlat
p108
F45.749577804559003
sVlng
p109
F126.6331216099
ssVstepInstruction
p110
V\u4ece<font color="#313233">\u897f\u5927\u6865\u7ad9</font>,\u4e5894\u8def(\u7687\u5bb6\u82b1\u56ed\u65b9\u5411)<font color="#7a7c80">\u621664\u8def,98\u8def</font>,\u7ecf\u8fc78\u7ad9,\u5230<font color="#313233">\u9053\u91cc\u4e09\u9053\u8857\u7ad9</font>
p111
sVvehicle
p112
(dp113
Vline_color
p114
V#f78731
p115
sVtotal_price
p116
I0
sVtype
p117
I0
sVname
p118
V94\u8def
p119
sVzone_price
p120
I0
sVstop_num
p121
I8
sVstart_time
p122
V05:30
p123
sVend_time
p124
V21:00
p125
sVend_name
p126
V\u9053\u91cc\u4e09\u9053\u8857\u7ad9
p127
sVis_rtbus
p128
I0
sVstart_uid
p129
V109be378fa2560bdd42ce2c8
p130
sVend_uid
p131
Vf3fe60a23cdcc8edf32d8338
p132
sVstart_name
p133
V\u897f\u5927\u6865\u7ad9
p134
sVuid
p135
V55137c2994fb88054acc4a57
p136
ssVduration
p137
I1167
sVpath
p138
V126.63311262685,45.749577804559;126.63401991541,45.75040167542;126.64013737594,45.755413816788;126.6491473802,45.762997199269;126.64954263463,45.762953185946;126.64981212628,45.763066362992;126.64991992294,45.763273853641;126.64990195683,45.763393317602;126.64973127878,45.763575656835;126.64932704131,45.763651107377;126.64907551576,45.763575656835;126.64636263312,45.764795428001;126.64495229347,45.765329855363;126.64462890349,45.765380154143;126.64158364781,45.76673820396;126.64152076642,45.766983403852;126.64196093612,45.767574394006;126.64196991918,45.76771270994;126.64172737669,45.768228248108;126.64170042753,45.768435719431;126.64304788579,45.769913144275;126.64315568245,45.770346933876;126.6430658519,45.770698992505;126.64312873329,45.770805867003;126.63864618879,45.77046638259;126.63746042552,45.770478956124;126.63747839163,45.770730426202;126.63658008612,45.772566123198;126.63593330615,45.774376614084;126.6341636443,45.774030865187;126.63097465974,45.773515381006;126.6297619473,45.777123669553;126.6282617771,45.782120823896
p139
sVtype
p140
I3
sa(dp141
Vdistance
p142
I5564
sVstepOriginLocation
p143
(dp144
Vlat
p145
F45.782120823896001
sVlng
p146
F126.62827076015
ssVstepDestinationLocation
p147
(dp148
Vlat
p149
F45.749577804559003
sVlng
p150
F126.63311262684999
ssVvehicle
p151
(dp152
Vline_color
p153
V#f78731
p154
sVtotal_price
p155
I0
sVtype
p156
I0
sVname
p157
V64\u8def
p158
sVzone_price
p159
I0
sVstop_num
p160
I8
sVstart_time
p161
V05:30
p162
sVend_time
p163
V20:30
p164
sVend_name
p165
V\u9053\u91cc\u4e09\u9053\u8857\u7ad9
p166
sVis_rtbus
p167
I0
sVstart_uid
p168
V1e78eea06428635790114cbe
p169
sVend_uid
p170
V352ae7b700169a51be484280
p171
sVstart_name
p172
V\u897f\u5927\u6865\u7ad9
p173
sVuid
p174
Vf753b5294abe1ab9f5231032
p175
ssVduration
p176
I1167
sVtype
p177
I3
sa(dp178
Vdistance
p179
I5588
sVstepOriginLocation
p180
(dp181
Vlat
p182
F45.782120823896001
sVlng
p183
F126.62825279403999
ssVstepDestinationLocation
p184
(dp185
Vlat
p186
F45.749584093696001
sVlng
p187
F126.63310364378999
ssVvehicle
p188
(dp189
Vline_color
p190
V#f78731
p191
sVtotal_price
p192
I0
sVtype
p193
I0
sVname
p194
V98\u8def
p195
sVzone_price
p196
I0
sVstop_num
p197
I8
sVstart_time
p198
V05:30
p199
sVend_time
p200
V18:00
p201
sVend_name
p202
V\u9053\u91cc\u4e09\u9053\u8857\u7ad9
p203
sVis_rtbus
p204
I0
sVstart_uid
p205
Ve4265b1c08308621a21de925
p206
sVend_uid
p207
V1ae3013dfb4d21f81e389494
p208
sVstart_name
p209
V\u897f\u5927\u6865\u7ad9
p210
sVuid
p211
Vd7cf2b45ee4b71026cc02cf9
p212
ssVduration
p213
I1171
sVtype
p214
I3
saa(lp215
(dp216
Vdistance
p217
I428
sVsname
p218
V
sVename
p219
V
sVstepDestinationLocation
p220
(dp221
Vlat
p222
F45.782120823896001
sVlng
p223
F126.62826177709999
ssVpois
p224
(lp225
sVstepOriginLocation
p226
(dp227
Vlat
p228
F45.782240247225999
sVlng
p229
F126.62405770731
ssVstepInstruction
p230
V\u6b65\u884c428\u7c73
p231
sVvehicle
p232
NsVduration
p233
I342
sVpath
p234
V126.6282617771,45.782120823896;126.62817194654,45.782403668208;126.62798330239,45.783069917989;126.62787550573,45.783013349923;126.6247404195,45.782673940312;126.62422838536,45.782535661726;126.62393194454,45.78245395149
p235
sVtype
p236
I5
saasVtip_label_background
p237
V#67C395
p238
sVduration
p239
I2024
sVtraffic_type
p240
I0
sVtip_label
p241
V<font color="#ffffff">\u76f4\u8fbe</font>
p242
sVplan_trans_type
p243
I3
sVoriginLocation
p244
(dp245
Vlat
p246
F45.750659525617003
sVlng
p247
F126.63419059346
ssasa(dp248
Vscheme
p249
(lp250
(dp251
Vdistance
p252
I5011
sVline_price
p253
(lp254
(dp255
Vline_price
p256
I0
sVline_type
p257
I1
sasVoriginLocation
p258
(dp259
Vlat
p260
F45.750659525617003
sVlng
p261
F126.63419059346
ssVprice
p262
I-1
sVdestinationLocation
p263
(dp264
Vlat
p265
F45.782240247225999
sVlng
p266
F126.62405770731
ssVarrive_time
p267
V2016-10-28T15:49:45
p268
sVsteps
p269
(lp270
(lp271
(dp272
Vdistance
p273
I668
sVsname
p274
V
sVename
p275
V
sVstepDestinationLocation
p276
(dp277
Vlat
p278
F45.750659525617003
sVlng
p279
F126.63419059346
ssVpois
p280
(lp281
sVstepOriginLocation
p282
(dp283
Vlat
p284
F45.754005180424002
sVlng
p285
F126.63543923812
ssVstepInstruction
p286
V\u6b65\u884c668\u7c73
p287
sVvehicle
p288
NsVduration
p289
I534
sVpath
p290
V126.63417262735,45.750665814631;126.63410974597,45.750621791516;126.63411872902,45.750697259691;126.63428042401,45.750854484725;126.63450500039,45.751024287262;126.63512483119,45.751539980666;126.6360231367,45.752269489972;126.63615788253,45.752388977651;126.63631957752,45.752533620285;126.63645432335,45.752653107395;126.63677771333,45.75291723588;126.63676873028,45.752954968418;126.63675974722,45.75299898968;126.63675974722,45.753030433418;126.63706517109,45.753263116518;126.63498110231,45.754451671718;126.63485533954,45.754332188484;126.63543923812,45.754011469059
p291
sVtype
p292
I5
saa(lp293
(dp294
Vdistance
p295
I3935
sVstepOriginLocation
p296
(dp297
Vlat
p298
F45.780876291764002
sVlng
p299
F126.62016804445
ssVstepDestinationLocation
p300
(dp301
Vlat
p302
F45.754005180424002
sVlng
p303
F126.63543923812
ssVstepInstruction
p304
V\u4ece<font color="#313233">\u6559\u5316\u5e7f\u573a\u7ad9</font>,\u4e58348\u8def(\u901a\u6c5f\u6e7f\u5730\u516c\u4ea4\u67a2\u7ebd\u7ad9\u65b9\u5411),\u7ecf\u8fc76\u7ad9,\u5230<font color="#313233">\u4e0a\u6e38\u8857\u7ad9</font>
p305
sVvehicle
p306
(dp307
Vline_color
p308
V#f78731
p309
sVtotal_price
p310
I0
sVtype
p311
I0
sVname
p312
V348\u8def
p313
sVzone_price
p314
I0
sVstop_num
p315
I6
sVstart_time
p316
V05:30
p317
sVend_time
p318
V20:00
p319
sVend_name
p320
V\u4e0a\u6e38\u8857\u7ad9
p321
sVis_rtbus
p322
I0
sVstart_uid
p323
V176d40b6da185fa8b817e7cf
p324
sVend_uid
p325
V6224da466845d9208c55ecbd
p326
sVstart_name
p327
V\u6559\u5316\u5e7f\u573a\u7ad9
p328
sVuid
p329
V83a8e1200ae634e39f09f793
p330
ssVduration
p331
I835
sVpath
p332
V126.63543923812,45.753998891789;126.63156754137,45.756250177694;126.62497397893,45.76039406551;126.62303363903,45.761236639094;126.62301567292,45.761324668431;126.62193770631,45.761752237507;126.62182092659,45.761896855713;126.61984465447,45.762613653424;126.61975482392,45.762689105275;126.61956617976,45.762701680574;126.61598194077,45.764242133067;126.61589211022,45.764216983166;126.61715872099,45.766599885593;126.61788634846,45.767763006557;126.61987160363,45.770359507437;126.62314143569,45.77502410167;126.62292584237,45.776036178757;126.62017702751,45.780876291764
p333
sVtype
p334
I3
saa(lp335
(dp336
Vdistance
p337
I408
sVsname
p338
V
sVename
p339
V
sVstepDestinationLocation
p340
(dp341
Vlat
p342
F45.780876291764002
sVlng
p343
F126.62016804445
ssVpois
p344
(lp345
sVstepOriginLocation
p346
(dp347
Vlat
p348
F45.782240247225999
sVlng
p349
F126.62405770731
ssVstepInstruction
p350
V\u6b65\u884c408\u7c73
p351
sVvehicle
p352
NsVduration
p353
I326
sVpath
p354
V126.62018601056,45.78088257735;126.61985363752,45.781404278508;126.61997940029,45.781404278508;126.61997940029,45.781404278508;126.62138075689,45.781775123331;126.62204550297,45.78195740208;126.62330313068,45.782290530656;126.62393194454,45.78245395149
p355
sVtype
p356
I5
saasVduration
p357
I2296
sVtraffic_type
p358
I0
sVplan_trans_type
p359
I3
sasa(dp360
Vscheme
p361
(lp362
(dp363
Vdistance
p364
I6539
sVline_price
p365
(lp366
(dp367
Vline_price
p368
I0
sVline_type
p369
I1
sasVoriginLocation
p370
(dp371
Vlat
p372
F45.750659525617003
sVlng
p373
F126.63419059346
ssVprice
p374
I-1
sVdestinationLocation
p375
(dp376
Vlat
p377
F45.782240247225999
sVlng
p378
F126.62405770731
ssVarrive_time
p379
V2016-10-28T15:55:57
p380
sVsteps
p381
(lp382
(lp383
(dp384
Vdistance
p385
I645
sVsname
p386
V
sVename
p387
V
sVstepDestinationLocation
p388
(dp389
Vlat
p390
F45.750659525617003
sVlng
p391
F126.63419059346
ssVpois
p392
(lp393
sVstepOriginLocation
p394
(dp395
Vlat
p396
F45.754816408415003
sVlng
p397
F126.63541228896
ssVstepInstruction
p398
V\u6b65\u884c645\u7c73
p399
sVvehicle
p400
NsVduration
p401
I516
sVpath
p402
V126.63417262735,45.750665814631;126.63410974597,45.750621791516;126.63411872902,45.750697259691;126.63428042401,45.750854484725;126.63450500039,45.751024287262;126.63512483119,45.751539980666;126.6360231367,45.752269489972;126.63615788253,45.752388977651;126.63631957752,45.752533620285;126.63645432335,45.752653107395;126.63677771333,45.75291723588;126.63676873028,45.752954968418;126.63675974722,45.75299898968;126.63675974722,45.753030433418;126.63706517109,45.753263116518;126.63498110231,45.754451671718;126.6352236448,45.754665483176;126.63539432285,45.754816408415
p403
sVtype
p404
I5
saa(lp405
(dp406
Vdistance
p407
I5249
sVstepOriginLocation
p408
(dp409
Vlat
p410
F45.783968713957996
sVlng
p411
F126.61839838260001
ssVstepDestinationLocation
p412
(dp413
Vlat
p414
F45.754816408415003
sVlng
p415
F126.63541228896
ssVstepInstruction
p416
V\u4ece<font color="#313233">\u6559\u5316\u5e7f\u573a\u7ad9</font>,\u4e58112\u8def(\u901a\u6c5f\u6e7f\u5730\u516c\u4ea4\u67a2\u7ebd\u7ad9\u65b9\u5411),\u7ecf\u8fc77\u7ad9,\u5230<font color="#313233">\u901a\u6c5f\u6e7f\u5730\u516c\u4ea4\u67a2\u7ebd\u7ad9</font>
p417
sVvehicle
p418
(dp419
Vline_color
p420
V#f78731
p421
sVtotal_price
p422
I0
sVtype
p423
I0
sVname
p424
V112\u8def
p425
sVzone_price
p426
I0
sVstop_num
p427
I7
sVstart_time
p428
V06:00
p429
sVend_time
p430
V20:00
p431
sVend_name
p432
V\u901a\u6c5f\u6e7f\u5730\u516c\u4ea4\u67a2\u7ebd\u7ad9
p433
sVis_rtbus
p434
I0
sVstart_uid
p435
V5f82cd5e0bf6e7148bf15d5b
p436
sVend_uid
p437
V305c388582dc3c1308ccdd4e
p438
sVstart_name
p439
V\u6559\u5316\u5e7f\u573a\u7ad9
p440
sVuid
p441
V8829f3fadf6f7773a8175aa6
p442
ssVduration
p443
I1084
sVpath
p444
V126.6354033059,45.754816408415;126.63485533954,45.754332188484;126.6307411003,45.756753245846;126.62497397893,45.76039406551;126.62303363903,45.761236639094;126.62301567292,45.761324668431;126.62193770631,45.761752237507;126.62182092659,45.761890567973;126.61984465447,45.762607365765;126.6224587235,45.765908288582;126.62492906365,45.769209014795;126.6222790624,45.769950865245;126.61987160363,45.770353220657;126.61885651841,45.770768146615;126.6178773654,45.771069908997;126.61494888944,45.772327234565;126.6172575346,45.774697215679;126.61895533201,45.77655792556;126.61493990638,45.777865414034;126.61187668459,45.779191728985;126.61343973618,45.78037972821;126.61580227967,45.782435095264;126.61644905964,45.782648798776;126.61884753535,45.783277333738;126.6183983826,45.783962428722
p445
sVtype
p446
I3
saa(lp447
(dp448
Vdistance
p449
I645
sVsname
p450
V
sVename
p451
V
sVstepDestinationLocation
p452
(dp453
Vlat
p454
F45.783968713957996
sVlng
p455
F126.61839838260001
ssVpois
p456
(lp457
sVstepOriginLocation
p458
(dp459
Vlat
p460
F45.782240247225999
sVlng
p461
F126.62405770731
ssVstepInstruction
p462
V\u6b65\u884c645\u7c73
p463
sVvehicle
p464
NsVduration
p465
I516
sVpath
p466
V126.6183983826,45.783968713958;126.6187577048,45.783428181068;126.61884753535,45.783277333738;126.61913499311,45.782743079475;126.61924278978,45.782541947123;126.61985363752,45.781404278508;126.61997940029,45.781404278508;126.61997940029,45.781404278508;126.62138075689,45.781775123331;126.62204550297,45.78195740208;126.62330313068,45.782290530656;126.62393194454,45.78245395149
p467
sVtype
p468
I5
saasVduration
p469
I2716
sVtraffic_type
p470
I0
sVplan_trans_type
p471
I3
sasa(dp472
Vscheme
p473
(lp474
(dp475
Vdistance
p476
I6773
sVline_price
p477
(lp478
(dp479
Vline_price
p480
I0
sVline_type
p481
I1
sasVoriginLocation
p482
(dp483
Vlat
p484
F45.750659525617003
sVlng
p485
F126.63419059346
ssVprice
p486
I-1
sVdestinationLocation
p487
(dp488
Vlat
p489
F45.782240247225999
sVlng
p490
F126.62405770731
ssVarrive_time
p491
V2016-10-28T15:55:48
p492
sVsteps
p493
(lp494
(lp495
(dp496
Vdistance
p497
I269
sVsname
p498
V
sVename
p499
V
sVstepDestinationLocation
p500
(dp501
Vlat
p502
F45.750659525617003
sVlng
p503
F126.63419059346
ssVpois
p504
(lp505
sVstepOriginLocation
p506
(dp507
Vlat
p508
F45.749577804559003
sVlng
p509
F126.63311262684999
ssVstepInstruction
p510
V\u6b65\u884c269\u7c73
p511
sVvehicle
p512
NsVduration
p513
I215
sVpath
p514
V126.63417262735,45.750665814631;126.63410974597,45.750621791516;126.63391211875,45.750470854858;126.63366957627,45.750257027223;126.63321144046,45.749835658587;126.63256466049,45.749238190107;126.63266347409,45.74916900913;126.63310364379,45.749577804559
p515
sVtype
p516
I5
saa(lp517
(dp518
Vdistance
p519
I5575
sVstepOriginLocation
p520
(dp521
Vlat
p522
F45.781228283486001
sVlng
p523
F126.63299584713
ssVstepDestinationLocation
p524
(dp525
Vlat
p526
F45.749577804559003
sVlng
p527
F126.63311262684999
ssVstepInstruction
p528
V\u4ece<font color="#313233">\u897f\u5927\u6865\u7ad9</font>,\u4e5883\u8def(\u9752\u5e74\u5bab\u65b9\u5411),\u7ecf\u8fc77\u7ad9,\u5230<font color="#313233">\u5146\u9e9f\u516c\u56ed\u7ad9</font>
p529
sVvehicle
p530
(dp531
Vline_color
p532
V#f78731
p533
sVtotal_price
p534
I0
sVtype
p535
I0
sVname
p536
V83\u8def
p537
sVzone_price
p538
I0
sVstop_num
p539
I7
sVstart_time
p540
V06:00
p541
sVend_time
p542
V20:30
p543
sVend_name
p544
V\u5146\u9e9f\u516c\u56ed\u7ad9
p545
sVis_rtbus
p546
I0
sVstart_uid
p547
V8fb6519cd42550d211882479
p548
sVend_uid
p549
Vffb00409aa950ffab9df8fd0
p550
sVstart_name
p551
V\u897f\u5927\u6865\u7ad9
p552
sVuid
p553
Vecad52b9de1f0ace70210b54
p554
ssVduration
p555
I1139
sVpath
p556
V126.63311262685,45.749584093696;126.63401991541,45.75040167542;126.63422652568,45.750552612266;126.63433432234,45.750565190318;126.63706517109,45.752741150363;126.63729873053,45.752766305471;126.63740652719,45.75283548196;126.63747839163,45.752929813396;126.63746940857,45.75308074336;126.63731669664,45.753212806741;126.63717296775,45.753256827799;126.63737957802,45.75447682605;126.63598720448,45.755338355033;126.63485533954,45.754332188484;126.63156754137,45.756243889313;126.62490211449,45.760438080865;126.62638431858,45.762462749413;126.6264202508,45.762733118808;126.62665381023,45.763254990887;126.62675262384,45.763355592168;126.62921398094,45.768152803797;126.62492906365,45.769215301705;126.62622262359,45.77090016786;126.62726465798,45.772415246286;126.62778567518,45.772754718759;126.62866601458,45.773006178508;126.63217838912,45.771730008478;126.63158550748,45.771535122783;126.63150465999,45.772063198563;126.62977991341,45.777067095414;126.6320616094,45.777356251519;126.63439720373,45.777727123444;126.6335617796,45.77973230322;126.63335516934,45.780455155872;126.63299584713,45.781228283486
p557
sVtype
p558
I3
saa(lp559
(dp560
Vdistance
p561
I929
sVsname
p562
V
sVename
p563
V
sVstepDestinationLocation
p564
(dp565
Vlat
p566
F45.781228283486001
sVlng
p567
F126.63299584713
ssVpois
p568
(lp569
sVstepOriginLocation
p570
(dp571
Vlat
p572
F45.782240247225999
sVlng
p573
F126.62405770731
ssVstepInstruction
p574
V\u6b65\u884c929\u7c73
p575
sVvehicle
p576
NsVduration
p577
I743
sVpath
p578
V126.63299584713,45.781228283486;126.63298686408,45.781247140122;126.63251974521,45.782246532657;126.63145974471,45.78206425486;126.63045364254,45.781856834568;126.63009432034,45.781781408815;126.6288007604,45.78151741787;126.62845042125,45.781441991654;126.62834262459,45.781850549093;126.62817194654,45.782403668208;126.62592618277,45.78228424523;126.62484821616,45.782221390928;126.6247404195,45.782673940312;126.62422838536,45.782535661726;126.62393194454,45.78245395149
p579
sVtype
p580
I5
saasVduration
p581
I2698
sVtraffic_type
p582
I0
sVplan_trans_type
p583
I3
sasa(dp584
Vscheme
p585
(lp586
(dp587
Vdistance
p588
I6009
sVline_price
p589
(lp590
(dp591
Vline_price
p592
I200
sVline_type
p593
I1
sasVoriginLocation
p594
(dp595
Vlat
p596
F45.750659525617003
sVlng
p597
F126.63419059346
ssVprice
p598
I-1
sVdestinationLocation
p599
(dp600
Vlat
p601
F45.782240247225999
sVlng
p602
F126.62405770731
ssVarrive_time
p603
V2016-10-28T15:47:53
p604
sVsteps
p605
(lp606
(lp607
(dp608
Vdistance
p609
I1946
sVstepOriginLocation
p610
(dp611
Vlat
p612
F45.764154108364004
sVlng
p613
F126.65016246543
ssVstepDestinationLocation
p614
(dp615
Vlat
p616
F45.750659525617003
sVlng
p617
F126.63419059346
ssVstepInstruction
p618
V\u4ece<font color="#313233">\u54c8\u5de5\u5927\u7ad9</font>,\u4e58\u5730\u94c11\u53f7\u7ebf(\u54c8\u4e1c\u7ad9\u65b9\u5411),\u7ecf\u8fc72\u7ad9,\u5230<font color="#313233">\u535a\u7269\u9986\u7ad9</font>
p619
sVvehicle
p620
(dp621
Vline_color
p622
V#3385ff
p623
sVtotal_price
p624
I0
sVtype
p625
I1
sVname
p626
V\u5730\u94c11\u53f7\u7ebf
p627
sVzone_price
p628
I0
sVstop_num
p629
I2
sVstart_time
p630
V06:00
p631
sVend_time
p632
V21:00
p633
sVend_name
p634
V\u535a\u7269\u9986\u7ad9
p635
sVis_rtbus
p636
I0
sVstart_uid
p637
V2ba1e929f7c3b295725e803d
p638
sVend_uid
p639
Vebd974aed4e5303685420ef3
p640
sVstart_name
p641
V\u54c8\u5de5\u5927\u7ad9
p642
sVuid
p643
Vcbbf7d63b3a34410c9213de0
p644
ssVduration
p645
I242
sVpath
p646
V126.63419059346,45.750659525617;126.64243703804,45.757488974798;126.65016246543,45.764154108364
p647
sVtype
p648
I3
saa(lp649
(dp650
Vdistance
p651
I257
sVsname
p652
V 3B\u53e3\u51fa
p653
sVename
p654
V
sVstepDestinationLocation
p655
(dp656
Vlat
p657
F45.764154108364004
sVlng
p658
F126.65016246543
ssVpois
p659
(lp660
sVstepOriginLocation
p661
(dp662
Vlat
p663
F45.763927758484002
sVlng
p664
F126.64830297301999
ssVstepInstruction
p665
V\u6b65\u884c257\u7c73
p666
sVvehicle
p667
NsVduration
p668
I205
sVpath
p669
V126.65015348237,45.764154108364;126.65015348237,45.764154108364;126.65017144848,45.764141533395;126.65044992319,45.763952908517;126.65044992319,45.763952908517;126.65029721126,45.763814583198;126.65019839765,45.76387117087;126.64979416017,45.763537931526;126.6496683974,45.763600807027;126.64959653296,45.763625957208;126.64952466852,45.763632244751;126.64947077019,45.763657394917;126.64939890575,45.763657394917;126.64932704131,45.763644819836;126.64927314297,45.763638532294;126.64924619381,45.763638532294;126.64917432937,45.763607094573;126.64912941409,45.763600807027;126.64907551576,45.763581944384;126.64887788855,45.763663682457;126.64867127828,45.763757995469;126.64844670191,45.763858595837;126.64830297302,45.763934045994
p670
sVtype
p671
I5
saa(lp672
(dp673
Vdistance
p674
I3378
sVstepOriginLocation
p675
(dp676
Vlat
p677
F45.782120823896001
sVlng
p678
F126.62826177709999
ssVstepDestinationLocation
p679
(dp680
Vlat
p681
F45.763927758484002
sVlng
p682
F126.64830297301999
ssVstepInstruction
p683
V\u4ece<font color="#313233">\u535a\u7269\u9986\u7ad9</font>,\u4e5816\u8def(\u901a\u6c5f\u6e7f\u5730\u516c\u4ea4\u67a2\u7ebd\u7ad9\u65b9\u5411),\u7ecf\u8fc75\u7ad9,\u5230<font color="#313233">\u9053\u91cc\u4e09\u9053\u8857\u7ad9</font>
p684
sVvehicle
p685
(dp686
Vline_color
p687
V#f78731
p688
sVtotal_price
p689
I0
sVtype
p690
I0
sVname
p691
V16\u8def
p692
sVzone_price
p693
I0
sVstop_num
p694
I5
sVstart_time
p695
V05:30
p696
sVend_time
p697
V20:30
p698
sVend_name
p699
V\u9053\u91cc\u4e09\u9053\u8857\u7ad9
p700
sVis_rtbus
p701
I0
sVstart_uid
p702
Vb67371769f2aed1104026fca
p703
sVend_uid
p704
V642d5fb4ff11af308415417c
p705
sVstart_name
p706
V\u535a\u7269\u9986\u7ad9
p707
sVuid
p708
Vcebed91195be8a4e2cb17ea6
p709
ssVduration
p710
I713
sVpath
p711
V126.64830297302,45.763921470975;126.64636263312,45.764789140589;126.64495229347,45.765323568012;126.64462890349,45.765380154143;126.64158364781,45.766731916769;126.64152076642,45.766977116689;126.64196093612,45.767568106909;126.64196991918,45.767706422859;126.64172737669,45.768221961086;126.64170042753,45.768429432433;126.64304788579,45.769906857444;126.64315568245,45.770340647094;126.6430658519,45.770692705763;126.64312873329,45.770805867003;126.63864618879,45.770460095822;126.63746042552,45.770472669357;126.63747839163,45.770724139464;126.63658008612,45.772559836668;126.63593330615,45.77437032776;126.6341636443,45.774024578823;126.63097465974,45.773509094584;126.62977991341,45.777060809395;126.62824381099,45.78211453845
p712
sVtype
p713
I3
saa(lp714
(dp715
Vdistance
p716
I428
sVsname
p717
V
sVename
p718
V
sVstepDestinationLocation
p719
(dp720
Vlat
p721
F45.782120823896001
sVlng
p722
F126.62826177709999
ssVpois
p723
(lp724
sVstepOriginLocation
p725
(dp726
Vlat
p727
F45.782240247225999
sVlng
p728
F126.62405770731
ssVstepInstruction
p729
V\u6b65\u884c428\u7c73
p730
sVvehicle
p731
NsVduration
p732
I342
sVpath
p733
V126.6282617771,45.782120823896;126.62817194654,45.782403668208;126.62798330239,45.783069917989;126.62787550573,45.783013349923;126.6247404195,45.782673940312;126.62422838536,45.782535661726;126.62393194454,45.78245395149
p734
sVtype
p735
I5
saasVduration
p736
I2252
sVtraffic_type
p737
I0
sVplan_trans_type
p738
I4
sasasVtraffic_condition
p739
I0
ss.