(dp1
Vstatus
p2
I0
sVinfo
p3
(dp4
Vcopyright
p5
(dp6
Vtext
p7
V@2016 Baidu - Data
p8
sVimageUrl
p9
Vhttp://api.map.baidu.com/images/copyright_logo.png
p10
sssVmessage
p11
Vok
p12
sVtype
p13
I2
sVresult
p14
(dp15
Vorigin
p16
(dp17
VoriginPt
p18
(dp19
Vlat
p20
F45.750659525617003
sVlng
p21
F126.63419059346
sssVtaxi
p22
(dp23
Vduration
p24
I593
sVdistance
p25
I5591
sVremark
p26
V\u5168\u7a0b5.6\u516c\u91cc;3.0\u516c\u91cc\u8d77\u6b65\uff1b\u71c3\u6cb9\u9644\u52a0\u8d391.0\u5143\uff1b\u91cc\u7a0b\u8d85\u8fc712.0\u516c\u91cc\uff0c\u8d85\u8fc7\u90e8\u5206\u6bcf\u516c\u91cc\u65362.9\u5143\u3002
p27
sVdetail
p28
(lp29
(dp30
Vstart_price
p31
V8.0
p32
sVkm_price
p33
V1.9
p34
sVtotal_price
p35
V14
p36
sVdesc
p37
V\u767d\u5929\uff0806:00-22:00\uff09
p38
sa(dp39
Vstart_price
p40
V8.0
p41
sVkm_price
p42
V2.5
p43
sVtotal_price
p44
V16
p45
sVdesc
p46
V\u591c\u95f4\uff0822:00-06:00\uff09
p47
sassVdestination
p48
(dp49
VdestinationPt
p50
(dp51
Vlat
p52
F45.782240247225999
sVlng
p53
F126.62405770731
sssVerror
p54
I0
sVroutes
p55
(lp56
(dp57
Vscheme
p58
(lp59
(dp60
Vdistance
p61
I6261
sVline_price
p62
(lp63
(dp64
Vline_price
p65
I0
sVline_type
p66
I1
sasVtip_label_type
p67
I6
sVprice
p68
I-1
sVdestinationLocation
p69
(dp70
Vlat
p71
F45.782240247225999
sVlng
p72
F126.62405770731
ssVarrive_time
p73
V2016-10-29T19:47:37
p74
sVsteps
p75
(lp76
(lp77
(dp78
Vdistance
p79
I269
sVsname
p80
V
sVename
p81
V
sVstepDestinationLocation
p82
(dp83
Vlat
p84
F45.750659525617003
sVlng
p85
F126.63419059346
ssVpois
p86
(lp87
sVstepOriginLocation
p88
(dp89
Vlat
p90
F45.749577804559003
sVlng
p91
F126.6331216099
ssVstepInstruction
p92
V\u6b65\u884c269\u7c73
p93
sVvehicle
p94
NsVduration
p95
I215
sVpath
p96
V126.63417262735,45.750665814631;126.63410974597,45.750621791516;126.63391211875,45.750470854858;126.63366957627,45.750257027223;126.63321144046,45.749835658587;126.63256466049,45.749238190107;126.63266347409,45.74916900913;126.63310364379,45.749584093696
p97
sVtype
p98
I5
saa(lp99
(dp100
Vdistance
p101
I5564
sVstepOriginLocation
p102
(dp103
Vlat
p104
F45.782120823896001
sVlng
p105
F126.62826177709999
ssVstepDestinationLocation
p106
(dp107
Vlat
p108
F45.749577804559003
sVlng
p109
F126.6331216099
ssVstepInstruction
p110
V\u4ece<font color="#313233">\u897f\u5927\u6865\u7ad9</font>,\u4e5894\u8def(\u7687\u5bb6\u82b1\u56ed\u65b9\u5411)<font color="#7a7c80">\u621664\u8def</font>,\u7ecf\u8fc78\u7ad9,\u5230<font color="#313233">\u9053\u91cc\u4e09\u9053\u8857\u7ad9</font>
p111
sVvehicle
p112
(dp113
Vline_color
p114
V#f78731
p115
sVtotal_price
p116
I0
sVtype
p117
I0
sVname
p118
V94\u8def
p119
sVzone_price
p120
I0
sVstop_num
p121
I8
sVstart_time
p122
V05:30
p123
sVend_time
p124
V21:00
p125
sVend_name
p126
V\u9053\u91cc\u4e09\u9053\u8857\u7ad9
p127
sVis_rtbus
p128
I0
sVstart_uid
p129
V109be378fa2560bdd42ce2c8
p130
sVend_uid
p131
Vf3fe60a23cdcc8edf32d8338
p132
sVstart_name
p133
V\u897f\u5927\u6865\u7ad9
p134
sVuid
p135
V55137c2994fb88054acc4a57
p136
ssVduration
p137
I1167
sVpath
p138
V126.63311262685,45.749577804559;126.63401991541,45.75040167542;126.64013737594,45.755413816788;126.6491473802,45.762997199269;126.64954263463,45.762953185946;126.64981212628,45.763066362992;126.64991992294,45.763273853641;126.64990195683,45.763393317602;126.64973127878,45.763575656835;126.64932704131,45.763651107377;126.64907551576,45.763575656835;126.64636263312,45.764795428001;126.64495229347,45.765329855363;126.64462890349,45.765380154143;126.64158364781,45.76673820396;126.64152076642,45.766983403852;126.64196093612,45.767574394006;126.64196991918,45.76771270994;126.64172737669,45.768228248108;126.64170042753,45.768435719431;126.64304788579,45.769913144275;126.64315568245,45.770346933876;126.6430658519,45.770698992505;126.64312873329,45.770805867003;126.63864618879,45.77046638259;126.63746042552,45.770478956124;126.63747839163,45.770730426202;126.63658008612,45.772566123198;126.63593330615,45.774376614084;126.6341636443,45.774030865187;126.63097465974,45.773515381006;126.6297619473,45.777123669553;126.6282617771,45.782120823896
p139
sVtype
p140
I3
sa(dp141
Vdistance
p142
I5564
sVstepOriginLocation
p143
(dp144
Vlat
p145
F45.782120823896001
sVlng
p146
F126.62827076015
ssVstepDestinationLocation
p147
(dp148
Vlat
p149
F45.749577804559003
sVlng
p150
F126.63311262684999
ssVvehicle
p151
(dp152
Vline_color
p153
V#f78731
p154
sVtotal_price
p155
I0
sVtype
p156
I0
sVname
p157
V64\u8def
p158
sVzone_price
p159
I0
sVstop_num
p160
I8
sVstart_time
p161
V05:30
p162
sVend_time
p163
V20:30
p164
sVend_name
p165
V\u9053\u91cc\u4e09\u9053\u8857\u7ad9
p166
sVis_rtbus
p167
I0
sVstart_uid
p168
V1e78eea06428635790114cbe
p169
sVend_uid
p170
V352ae7b700169a51be484280
p171
sVstart_name
p172
V\u897f\u5927\u6865\u7ad9
p173
sVuid
p174
Vf753b5294abe1ab9f5231032
p175
ssVduration
p176
I1167
sVtype
p177
I3
saa(lp178
(dp179
Vdistance
p180
I428
sVsname
p181
V
sVename
p182
V
sVstepDestinationLocation
p183
(dp184
Vlat
p185
F45.782120823896001
sVlng
p186
F126.62826177709999
ssVpois
p187
(lp188
sVstepOriginLocation
p189
(dp190
Vlat
p191
F45.782240247225999
sVlng
p192
F126.62405770731
ssVstepInstruction
p193
V\u6b65\u884c428\u7c73
p194
sVvehicle
p195
NsVduration
p196
I342
sVpath
p197
V126.6282617771,45.782120823896;126.62817194654,45.782403668208;126.62798330239,45.783069917989;126.62787550573,45.783013349923;126.6247404195,45.782673940312;126.62422838536,45.782535661726;126.62393194454,45.78245395149
p198
sVtype
p199
I5
saasVtip_label_background
p200
V#67C395
p201
sVduration
p202
I2174
sVtraffic_type
p203
I0
sVtip_label
p204
V<font color="#ffffff">\u76f4\u8fbe</font>
p205
sVplan_trans_type
p206
I3
sVoriginLocation
p207
(dp208
Vlat
p209
F45.750659525617003
sVlng
p210
F126.63419059346
ssasa(dp211
Vscheme
p212
(lp213
(dp214
Vdistance
p215
I5011
sVline_price
p216
(lp217
(dp218
Vline_price
p219
I0
sVline_type
p220
I1
sasVoriginLocation
p221
(dp222
Vlat
p223
F45.750659525617003
sVlng
p224
F126.63419059346
ssVprice
p225
I-1
sVdestinationLocation
p226
(dp227
Vlat
p228
F45.782240247225999
sVlng
p229
F126.62405770731
ssVarrive_time
p230
V2016-10-29T19:40:47
p231
sVsteps
p232
(lp233
(lp234
(dp235
Vdistance
p236
I668
sVsname
p237
V
sVename
p238
V
sVstepDestinationLocation
p239
(dp240
Vlat
p241
F45.750659525617003
sVlng
p242
F126.63419059346
ssVpois
p243
(lp244
sVstepOriginLocation
p245
(dp246
Vlat
p247
F45.754005180424002
sVlng
p248
F126.63543923812
ssVstepInstruction
p249
V\u6b65\u884c668\u7c73
p250
sVvehicle
p251
NsVduration
p252
I534
sVpath
p253
V126.63417262735,45.750665814631;126.63410974597,45.750621791516;126.63411872902,45.750697259691;126.63428042401,45.750854484725;126.63450500039,45.751024287262;126.63512483119,45.751539980666;126.6360231367,45.752269489972;126.63615788253,45.752388977651;126.63631957752,45.752533620285;126.63645432335,45.752653107395;126.63677771333,45.75291723588;126.63676873028,45.752954968418;126.63675974722,45.75299898968;126.63675974722,45.753030433418;126.63706517109,45.753263116518;126.63498110231,45.754451671718;126.63485533954,45.754332188484;126.63543923812,45.754011469059
p254
sVtype
p255
I5
saa(lp256
(dp257
Vdistance
p258
I3935
sVstepOriginLocation
p259
(dp260
Vlat
p261
F45.780876291764002
sVlng
p262
F126.62016804445
ssVstepDestinationLocation
p263
(dp264
Vlat
p265
F45.754005180424002
sVlng
p266
F126.63543923812
ssVstepInstruction
p267
V\u4ece<font color="#313233">\u6559\u5316\u5e7f\u573a\u7ad9</font>,\u4e58348\u8def(\u901a\u6c5f\u6e7f\u5730\u516c\u4ea4\u67a2\u7ebd\u7ad9\u65b9\u5411),\u7ecf\u8fc76\u7ad9,\u5230<font color="#313233">\u4e0a\u6e38\u8857\u7ad9</font>
p268
sVvehicle
p269
(dp270
Vline_color
p271
V#f78731
p272
sVtotal_price
p273
I0
sVtype
p274
I0
sVname
p275
V348\u8def
p276
sVzone_price
p277
I0
sVstop_num
p278
I6
sVstart_time
p279
V05:30
p280
sVend_time
p281
V20:00
p282
sVend_name
p283
V\u4e0a\u6e38\u8857\u7ad9
p284
sVis_rtbus
p285
I0
sVstart_uid
p286
V176d40b6da185fa8b817e7cf
p287
sVend_uid
p288
V6224da466845d9208c55ecbd
p289
sVstart_name
p290
V\u6559\u5316\u5e7f\u573a\u7ad9
p291
sVuid
p292
V83a8e1200ae634e39f09f793
p293
ssVduration
p294
I835
sVpath
p295
V126.63543923812,45.753998891789;126.63156754137,45.756250177694;126.62497397893,45.76039406551;126.62303363903,45.761236639094;126.62301567292,45.761324668431;126.62193770631,45.761752237507;126.62182092659,45.761896855713;126.61984465447,45.762613653424;126.61975482392,45.762689105275;126.61956617976,45.762701680574;126.61598194077,45.764242133067;126.61589211022,45.764216983166;126.61715872099,45.766599885593;126.61788634846,45.767763006557;126.61987160363,45.770359507437;126.62314143569,45.77502410167;126.62292584237,45.776036178757;126.62017702751,45.780876291764
p296
sVtype
p297
I3
saa(lp298
(dp299
Vdistance
p300
I408
sVsname
p301
V
sVename
p302
V
sVstepDestinationLocation
p303
(dp304
Vlat
p305
F45.780876291764002
sVlng
p306
F126.62016804445
ssVpois
p307
(lp308
sVstepOriginLocation
p309
(dp310
Vlat
p311
F45.782240247225999
sVlng
p312
F126.62405770731
ssVstepInstruction
p313
V\u6b65\u884c408\u7c73
p314
sVvehicle
p315
NsVduration
p316
I326
sVpath
p317
V126.62018601056,45.78088257735;126.61985363752,45.781404278508;126.61997940029,45.781404278508;126.61997940029,45.781404278508;126.62138075689,45.781775123331;126.62204550297,45.78195740208;126.62330313068,45.782290530656;126.62393194454,45.78245395149
p318
sVtype
p319
I5
saasVduration
p320
I2296
sVtraffic_type
p321
I0
sVplan_trans_type
p322
I3
sasa(dp323
Vscheme
p324
(lp325
(dp326
Vdistance
p327
I6539
sVline_price
p328
(lp329
(dp330
Vline_price
p331
I0
sVline_type
p332
I1
sasVoriginLocation
p333
(dp334
Vlat
p335
F45.750659525617003
sVlng
p336
F126.63419059346
ssVprice
p337
I-1
sVdestinationLocation
p338
(dp339
Vlat
p340
F45.782240247225999
sVlng
p341
F126.62405770731
ssVarrive_time
p342
V2016-10-29T19:46:59
p343
sVsteps
p344
(lp345
(lp346
(dp347
Vdistance
p348
I645
sVsname
p349
V
sVename
p350
V
sVstepDestinationLocation
p351
(dp352
Vlat
p353
F45.750659525617003
sVlng
p354
F126.63419059346
ssVpois
p355
(lp356
sVstepOriginLocation
p357
(dp358
Vlat
p359
F45.754816408415003
sVlng
p360
F126.63541228896
ssVstepInstruction
p361
V\u6b65\u884c645\u7c73
p362
sVvehicle
p363
NsVduration
p364
I516
sVpath
p365
V126.63417262735,45.750665814631;126.63410974597,45.750621791516;126.63411872902,45.750697259691;126.63428042401,45.750854484725;126.63450500039,45.751024287262;126.63512483119,45.751539980666;126.6360231367,45.752269489972;126.63615788253,45.752388977651;126.63631957752,45.752533620285;126.63645432335,45.752653107395;126.63677771333,45.75291723588;126.63676873028,45.752954968418;126.63675974722,45.75299898968;126.63675974722,45.753030433418;126.63706517109,45.753263116518;126.63498110231,45.754451671718;126.6352236448,45.754665483176;126.63539432285,45.754816408415
p366
sVtype
p367
I5
saa(lp368
(dp369
Vdistance
p370
I5249
sVstepOriginLocation
p371
(dp372
Vlat
p373
F45.783968713957996
sVlng
p374
F126.61839838260001
ssVstepDestinationLocation
p375
(dp376
Vlat
p377
F45.754816408415003
sVlng
p378
F126.63541228896
ssVstepInstruction
p379
V\u4ece<font color="#313233">\u6559\u5316\u5e7f\u573a\u7ad9</font>,\u4e58112\u8def(\u901a\u6c5f\u6e7f\u5730\u516c\u4ea4\u67a2\u7ebd\u7ad9\u65b9\u5411),\u7ecf\u8fc77\u7ad9,\u5230<font color="#313233">\u901a\u6c5f\u6e7f\u5730\u516c\u4ea4\u67a2\u7ebd\u7ad9</font>
p380
sVvehicle
p381
(dp382
Vline_color
p383
V#f78731
p384
sVtotal_price
p385
I0
sVtype
p386
I0
sVname
p387
V112\u8def
p388
sVzone_price
p389
I0
sVstop_num
p390
I7
sVstart_time
p391
V06:00
p392
sVend_time
p393
V20:00
p394
sVend_name
p395
V\u901a\u6c5f\u6e7f\u5730\u516c\u4ea4\u67a2\u7ebd\u7ad9
p396
sVis_rtbus
p397
I0
sVstart_uid
p398
V5f82cd5e0bf6e7148bf15d5b
p399
sVend_uid
p400
V305c388582dc3c1308ccdd4e
p401
sVstart_name
p402
V\u6559\u5316\u5e7f\u573a\u7ad9
p403
sVuid
p404
V8829f3fadf6f7773a8175aa6
p405
ssVduration
p406
I1084
sVpath
p407
V126.6354033059,45.754816408415;126.63485533954,45.754332188484;126.6307411003,45.756753245846;126.62497397893,45.76039406551;126.62303363903,45.761236639094;126.62301567292,45.761324668431;126.62193770631,45.761752237507;126.62182092659,45.761890567973;126.61984465447,45.762607365765;126.6224587235,45.765908288582;126.62492906365,45.769209014795;126.6222790624,45.769950865245;126.61987160363,45.770353220657;126.61885651841,45.770768146615;126.6178773654,45.771069908997;126.61494888944,45.772327234565;126.6172575346,45.774697215679;126.61895533201,45.77655792556;126.61493990638,45.777865414034;126.61187668459,45.779191728985;126.61343973618,45.78037972821;126.61580227967,45.782435095264;126.61644905964,45.782648798776;126.61884753535,45.783277333738;126.6183983826,45.783962428722
p408
sVtype
p409
I3
saa(lp410
(dp411
Vdistance
p412
I645
sVsname
p413
V
sVename
p414
V
sVstepDestinationLocation
p415
(dp416
Vlat
p417
F45.783968713957996
sVlng
p418
F126.61839838260001
ssVpois
p419
(lp420
sVstepOriginLocation
p421
(dp422
Vlat
p423
F45.782240247225999
sVlng
p424
F126.62405770731
ssVstepInstruction
p425
V\u6b65\u884c645\u7c73
p426
sVvehicle
p427
NsVduration
p428
I516
sVpath
p429
V126.6183983826,45.783968713958;126.6187577048,45.783428181068;126.61884753535,45.783277333738;126.61913499311,45.782743079475;126.61924278978,45.782541947123;126.61985363752,45.781404278508;126.61997940029,45.781404278508;126.61997940029,45.781404278508;126.62138075689,45.781775123331;126.62204550297,45.78195740208;126.62330313068,45.782290530656;126.62393194454,45.78245395149
p430
sVtype
p431
I5
saasVduration
p432
I2716
sVtraffic_type
p433
I0
sVplan_trans_type
p434
I3
sasa(dp435
Vscheme
p436
(lp437
(dp438
Vdistance
p439
I6773
sVline_price
p440
(lp441
(dp442
Vline_price
p443
I0
sVline_type
p444
I1
sasVoriginLocation
p445
(dp446
Vlat
p447
F45.750659525617003
sVlng
p448
F126.63419059346
ssVprice
p449
I-1
sVdestinationLocation
p450
(dp451
Vlat
p452
F45.782240247225999
sVlng
p453
F126.62405770731
ssVarrive_time
p454
V2016-10-29T19:46:50
p455
sVsteps
p456
(lp457
(lp458
(dp459
Vdistance
p460
I269
sVsname
p461
V
sVename
p462
V
sVstepDestinationLocation
p463
(dp464
Vlat
p465
F45.750659525617003
sVlng
p466
F126.63419059346
ssVpois
p467
(lp468
sVstepOriginLocation
p469
(dp470
Vlat
p471
F45.749577804559003
sVlng
p472
F126.63311262684999
ssVstepInstruction
p473
V\u6b65\u884c269\u7c73
p474
sVvehicle
p475
NsVduration
p476
I215
sVpath
p477
V126.63417262735,45.750665814631;126.63410974597,45.750621791516;126.63391211875,45.750470854858;126.63366957627,45.750257027223;126.63321144046,45.749835658587;126.63256466049,45.749238190107;126.63266347409,45.74916900913;126.63310364379,45.749577804559
p478
sVtype
p479
I5
saa(lp480
(dp481
Vdistance
p482
I5575
sVstepOriginLocation
p483
(dp484
Vlat
p485
F45.781228283486001
sVlng
p486
F126.63299584713
ssVstepDestinationLocation
p487
(dp488
Vlat
p489
F45.749577804559003
sVlng
p490
F126.63311262684999
ssVstepInstruction
p491
V\u4ece<font color="#313233">\u897f\u5927\u6865\u7ad9</font>,\u4e5883\u8def(\u9752\u5e74\u5bab\u65b9\u5411),\u7ecf\u8fc77\u7ad9,\u5230<font color="#313233">\u5146\u9e9f\u516c\u56ed\u7ad9</font>
p492
sVvehicle
p493
(dp494
Vline_color
p495
V#f78731
p496
sVtotal_price
p497
I0
sVtype
p498
I0
sVname
p499
V83\u8def
p500
sVzone_price
p501
I0
sVstop_num
p502
I7
sVstart_time
p503
V06:00
p504
sVend_time
p505
V20:30
p506
sVend_name
p507
V\u5146\u9e9f\u516c\u56ed\u7ad9
p508
sVis_rtbus
p509
I0
sVstart_uid
p510
V8fb6519cd42550d211882479
p511
sVend_uid
p512
Vffb00409aa950ffab9df8fd0
p513
sVstart_name
p514
V\u897f\u5927\u6865\u7ad9
p515
sVuid
p516
Vecad52b9de1f0ace70210b54
p517
ssVduration
p518
I1139
sVpath
p519
V126.63311262685,45.749584093696;126.63401991541,45.75040167542;126.63422652568,45.750552612266;126.63433432234,45.750565190318;126.63706517109,45.752741150363;126.63729873053,45.752766305471;126.63740652719,45.75283548196;126.63747839163,45.752929813396;126.63746940857,45.75308074336;126.63731669664,45.753212806741;126.63717296775,45.753256827799;126.63737957802,45.75447682605;126.63598720448,45.755338355033;126.63485533954,45.754332188484;126.63156754137,45.756243889313;126.62490211449,45.760438080865;126.62638431858,45.762462749413;126.6264202508,45.762733118808;126.62665381023,45.763254990887;126.62675262384,45.763355592168;126.62921398094,45.768152803797;126.62492906365,45.769215301705;126.62622262359,45.77090016786;126.62726465798,45.772415246286;126.62778567518,45.772754718759;126.62866601458,45.773006178508;126.63217838912,45.771730008478;126.63158550748,45.771535122783;126.63150465999,45.772063198563;126.62977991341,45.777067095414;126.6320616094,45.777356251519;126.63439720373,45.777727123444;126.6335617796,45.77973230322;126.63335516934,45.780455155872;126.63299584713,45.781228283486
p520
sVtype
p521
I3
saa(lp522
(dp523
Vdistance
p524
I929
sVsname
p525
V
sVename
p526
V
sVstepDestinationLocation
p527
(dp528
Vlat
p529
F45.781228283486001
sVlng
p530
F126.63299584713
ssVpois
p531
(lp532
sVstepOriginLocation
p533
(dp534
Vlat
p535
F45.782240247225999
sVlng
p536
F126.62405770731
ssVstepInstruction
p537
V\u6b65\u884c929\u7c73
p538
sVvehicle
p539
NsVduration
p540
I743
sVpath
p541
V126.63299584713,45.781228283486;126.63298686408,45.781247140122;126.63251974521,45.782246532657;126.63145974471,45.78206425486;126.63045364254,45.781856834568;126.63009432034,45.781781408815;126.6288007604,45.78151741787;126.62845042125,45.781441991654;126.62834262459,45.781850549093;126.62817194654,45.782403668208;126.62592618277,45.78228424523;126.62484821616,45.782221390928;126.6247404195,45.782673940312;126.62422838536,45.782535661726;126.62393194454,45.78245395149
p542
sVtype
p543
I5
saasVduration
p544
I2698
sVtraffic_type
p545
I0
sVplan_trans_type
p546
I3
sasa(dp547
Vscheme
p548
(lp549
(dp550
Vdistance
p551
I6009
sVline_price
p552
(lp553
(dp554
Vline_price
p555
I200
sVline_type
p556
I1
sasVoriginLocation
p557
(dp558
Vlat
p559
F45.750659525617003
sVlng
p560
F126.63419059346
ssVprice
p561
I-1
sVdestinationLocation
p562
(dp563
Vlat
p564
F45.782240247225999
sVlng
p565
F126.62405770731
ssVarrive_time
p566
V2016-10-29T19:38:55
p567
sVsteps
p568
(lp569
(lp570
(dp571
Vdistance
p572
I1946
sVstepOriginLocation
p573
(dp574
Vlat
p575
F45.764154108364004
sVlng
p576
F126.65016246543
ssVstepDestinationLocation
p577
(dp578
Vlat
p579
F45.750659525617003
sVlng
p580
F126.63419059346
ssVstepInstruction
p581
V\u4ece<font color="#313233">\u54c8\u5de5\u5927\u7ad9</font>,\u4e58\u5730\u94c11\u53f7\u7ebf(\u54c8\u4e1c\u7ad9\u65b9\u5411),\u7ecf\u8fc72\u7ad9,\u5230<font color="#313233">\u535a\u7269\u9986\u7ad9</font>
p582
sVvehicle
p583
(dp584
Vline_color
p585
V#3385ff
p586
sVtotal_price
p587
I0
sVtype
p588
I1
sVname
p589
V\u5730\u94c11\u53f7\u7ebf
p590
sVzone_price
p591
I0
sVstop_num
p592
I2
sVstart_time
p593
V06:00
p594
sVend_time
p595
V21:00
p596
sVend_name
p597
V\u535a\u7269\u9986\u7ad9
p598
sVis_rtbus
p599
I0
sVstart_uid
p600
V2ba1e929f7c3b295725e803d
p601
sVend_uid
p602
Vebd974aed4e5303685420ef3
p603
sVstart_name
p604
V\u54c8\u5de5\u5927\u7ad9
p605
sVuid
p606
Vcbbf7d63b3a34410c9213de0
p607
ssVduration
p608
I242
sVpath
p609
V126.63419059346,45.750659525617;126.64243703804,45.757488974798;126.65016246543,45.764154108364
p610
sVtype
p611
I3
saa(lp612
(dp613
Vdistance
p614
I257
sVsname
p615
V 3B\u53e3\u51fa
p616
sVename
p617
V
sVstepDestinationLocation
p618
(dp619
Vlat
p620
F45.764154108364004
sVlng
p621
F126.65016246543
ssVpois
p622
(lp623
sVstepOriginLocation
p624
(dp625
Vlat
p626
F45.763927758484002
sVlng
p627
F126.64830297301999
ssVstepInstruction
p628
V\u6b65\u884c257\u7c73
p629
sVvehicle
p630
NsVduration
p631
I205
sVpath
p632
V126.65015348237,45.764154108364;126.65015348237,45.764154108364;126.65017144848,45.764141533395;126.65044992319,45.763952908517;126.65044992319,45.763952908517;126.65029721126,45.763814583198;126.65019839765,45.76387117087;126.64979416017,45.763537931526;126.6496683974,45.763600807027;126.64959653296,45.763625957208;126.64952466852,45.763632244751;126.64947077019,45.763657394917;126.64939890575,45.763657394917;126.64932704131,45.763644819836;126.64927314297,45.763638532294;126.64924619381,45.763638532294;126.64917432937,45.763607094573;126.64912941409,45.763600807027;126.64907551576,45.763581944384;126.64887788855,45.763663682457;126.64867127828,45.763757995469;126.64844670191,45.763858595837;126.64830297302,45.763934045994
p633
sVtype
p634
I5
saa(lp635
(dp636
Vdistance
p637
I3378
sVstepOriginLocation
p638
(dp639
Vlat
p640
F45.782120823896001
sVlng
p641
F126.62826177709999
ssVstepDestinationLocation
p642
(dp643
Vlat
p644
F45.763927758484002
sVlng
p645
F126.64830297301999
ssVstepInstruction
p646
V\u4ece<font color="#313233">\u535a\u7269\u9986\u7ad9</font>,\u4e5816\u8def(\u901a\u6c5f\u6e7f\u5730\u516c\u4ea4\u67a2\u7ebd\u7ad9\u65b9\u5411),\u7ecf\u8fc75\u7ad9,\u5230<font color="#313233">\u9053\u91cc\u4e09\u9053\u8857\u7ad9</font>
p647
sVvehicle
p648
(dp649
Vline_color
p650
V#f78731
p651
sVtotal_price
p652
I0
sVtype
p653
I0
sVname
p654
V16\u8def
p655
sVzone_price
p656
I0
sVstop_num
p657
I5
sVstart_time
p658
V05:30
p659
sVend_time
p660
V20:30
p661
sVend_name
p662
V\u9053\u91cc\u4e09\u9053\u8857\u7ad9
p663
sVis_rtbus
p664
I0
sVstart_uid
p665
Vb67371769f2aed1104026fca
p666
sVend_uid
p667
V642d5fb4ff11af308415417c
p668
sVstart_name
p669
V\u535a\u7269\u9986\u7ad9
p670
sVuid
p671
Vcebed91195be8a4e2cb17ea6
p672
ssVduration
p673
I713
sVpath
p674
V126.64830297302,45.763921470975;126.64636263312,45.764789140589;126.64495229347,45.765323568012;126.64462890349,45.765380154143;126.64158364781,45.766731916769;126.64152076642,45.766977116689;126.64196093612,45.767568106909;126.64196991918,45.767706422859;126.64172737669,45.768221961086;126.64170042753,45.768429432433;126.64304788579,45.769906857444;126.64315568245,45.770340647094;126.6430658519,45.770692705763;126.64312873329,45.770805867003;126.63864618879,45.770460095822;126.63746042552,45.770472669357;126.63747839163,45.770724139464;126.63658008612,45.772559836668;126.63593330615,45.77437032776;126.6341636443,45.774024578823;126.63097465974,45.773509094584;126.62977991341,45.777060809395;126.62824381099,45.78211453845
p675
sVtype
p676
I3
saa(lp677
(dp678
Vdistance
p679
I428
sVsname
p680
V
sVename
p681
V
sVstepDestinationLocation
p682
(dp683
Vlat
p684
F45.782120823896001
sVlng
p685
F126.62826177709999
ssVpois
p686
(lp687
sVstepOriginLocation
p688
(dp689
Vlat
p690
F45.782240247225999
sVlng
p691
F126.62405770731
ssVstepInstruction
p692
V\u6b65\u884c428\u7c73
p693
sVvehicle
p694
NsVduration
p695
I342
sVpath
p696
V126.6282617771,45.782120823896;126.62817194654,45.782403668208;126.62798330239,45.783069917989;126.62787550573,45.783013349923;126.6247404195,45.782673940312;126.62422838536,45.782535661726;126.62393194454,45.78245395149
p697
sVtype
p698
I5
saasVduration
p699
I2252
sVtraffic_type
p700
I0
sVplan_trans_type
p701
I4
sasasVtraffic_condition
p702
I0
ss.